Archive member included to satisfy reference by file (symbol)

app/libapp.a(main.c.obj)      (--whole-archive)
app/libapp.a(moteur.c.obj)    (--whole-archive)
app/libapp.a(codeur.c.obj)    (--whole-archive)
app/libapp.a(boussole.c.obj)  (--whole-archive)
app/libapp.a(pid.c.obj)       (--whole-archive)
zephyr/libzephyr.a(heap.c.obj)
                              (--whole-archive)
zephyr/libzephyr.a(cbprintf_packaged.c.obj)
                              (--whole-archive)
zephyr/libzephyr.a(printk.c.obj)
                              (--whole-archive)
zephyr/libzephyr.a(sem.c.obj)
                              (--whole-archive)
zephyr/libzephyr.a(thread_entry.c.obj)
                              (--whole-archive)
zephyr/libzephyr.a(cbprintf_complete.c.obj)
                              (--whole-archive)
zephyr/libzephyr.a(assert.c.obj)
                              (--whole-archive)
zephyr/libzephyr.a(mpsc_pbuf.c.obj)
                              (--whole-archive)
zephyr/libzephyr.a(reboot.c.obj)
                              (--whole-archive)
zephyr/libzephyr.a(dec.c.obj)
                              (--whole-archive)
zephyr/libzephyr.a(hex.c.obj)
                              (--whole-archive)
zephyr/libzephyr.a(rb.c.obj)  (--whole-archive)
zephyr/libzephyr.a(timeutil.c.obj)
                              (--whole-archive)
zephyr/libzephyr.a(bitarray.c.obj)
                              (--whole-archive)
zephyr/libzephyr.a(configs.c.obj)
                              (--whole-archive)
zephyr/libzephyr.a(stm32cube_hal.c.obj)
                              (--whole-archive)
zephyr/libzephyr.a(soc_config.c.obj)
                              (--whole-archive)
zephyr/libzephyr.a(soc.c.obj)
                              (--whole-archive)
zephyr/libzephyr.a(log_core.c.obj)
                              (--whole-archive)
zephyr/libzephyr.a(log_mgmt.c.obj)
                              (--whole-archive)
zephyr/libzephyr.a(log_cache.c.obj)
                              (--whole-archive)
zephyr/libzephyr.a(log_msg.c.obj)
                              (--whole-archive)
zephyr/libzephyr.a(log_output.c.obj)
                              (--whole-archive)
zephyr/libzephyr.a(log_backend_uart.c.obj)
                              (--whole-archive)
zephyr/libzephyr.a(tracing_none.c.obj)
                              (--whole-archive)
zephyr/arch/common/libarch__common.a(sw_isr_common.c.obj)
                              (--whole-archive)
zephyr/arch/arch/arm/core/libarch__arm__core.a(fatal.c.obj)
                              (--whole-archive)
zephyr/arch/arch/arm/core/libarch__arm__core.a(nmi.c.obj)
                              (--whole-archive)
zephyr/arch/arch/arm/core/libarch__arm__core.a(nmi_on_reset.S.obj)
                              (--whole-archive)
zephyr/arch/arch/arm/core/libarch__arm__core.a(tls.c.obj)
                              (--whole-archive)
zephyr/arch/arch/arm/core/cortex_m/libarch__arm__core__cortex_m.a(exc_exit.c.obj)
                              (--whole-archive)
zephyr/arch/arch/arm/core/cortex_m/libarch__arm__core__cortex_m.a(fault.c.obj)
                              (--whole-archive)
zephyr/arch/arch/arm/core/cortex_m/libarch__arm__core__cortex_m.a(fault_s.S.obj)
                              (--whole-archive)
zephyr/arch/arch/arm/core/cortex_m/libarch__arm__core__cortex_m.a(fpu.c.obj)
                              (--whole-archive)
zephyr/arch/arch/arm/core/cortex_m/libarch__arm__core__cortex_m.a(reset.S.obj)
                              (--whole-archive)
zephyr/arch/arch/arm/core/cortex_m/libarch__arm__core__cortex_m.a(scb.c.obj)
                              (--whole-archive)
zephyr/arch/arch/arm/core/cortex_m/libarch__arm__core__cortex_m.a(thread_abort.c.obj)
                              (--whole-archive)
zephyr/arch/arch/arm/core/cortex_m/libarch__arm__core__cortex_m.a(vector_table.S.obj)
                              (--whole-archive)
zephyr/arch/arch/arm/core/cortex_m/libarch__arm__core__cortex_m.a(swap.c.obj)
                              (--whole-archive)
zephyr/arch/arch/arm/core/cortex_m/libarch__arm__core__cortex_m.a(swap_helper.S.obj)
                              (--whole-archive)
zephyr/arch/arch/arm/core/cortex_m/libarch__arm__core__cortex_m.a(irq_manage.c.obj)
                              (--whole-archive)
zephyr/arch/arch/arm/core/cortex_m/libarch__arm__core__cortex_m.a(prep_c.c.obj)
                              (--whole-archive)
zephyr/arch/arch/arm/core/cortex_m/libarch__arm__core__cortex_m.a(thread.c.obj)
                              (--whole-archive)
zephyr/arch/arch/arm/core/cortex_m/libarch__arm__core__cortex_m.a(cpu_idle.c.obj)
                              (--whole-archive)
zephyr/arch/arch/arm/core/cortex_m/libarch__arm__core__cortex_m.a(irq_init.c.obj)
                              (--whole-archive)
zephyr/arch/arch/arm/core/cortex_m/libarch__arm__core__cortex_m.a(isr_wrapper.c.obj)
                              (--whole-archive)
zephyr/arch/arch/arm/core/cortex_m/libarch__arm__core__cortex_m.a(__aeabi_read_tp.S.obj)
                              (--whole-archive)
zephyr/lib/libc/picolibc/liblib__libc__picolibc.a(libc-hooks.c.obj)
                              (--whole-archive)
zephyr/lib/libc/common/liblib__libc__common.a(abort.c.obj)
                              (--whole-archive)
zephyr/lib/libc/common/liblib__libc__common.a(malloc.c.obj)
                              (--whole-archive)
zephyr/drivers/interrupt_controller/libdrivers__interrupt_controller.a(intc_exti_stm32.c.obj)
                              (--whole-archive)
zephyr/drivers/clock_control/libdrivers__clock_control.a(clock_stm32_ll_common.c.obj)
                              (--whole-archive)
zephyr/drivers/clock_control/libdrivers__clock_control.a(clock_stm32f1.c.obj)
                              (--whole-archive)
zephyr/drivers/console/libdrivers__console.a(uart_console.c.obj)
                              (--whole-archive)
zephyr/drivers/gpio/libdrivers__gpio.a(gpio_stm32.c.obj)
                              (--whole-archive)
zephyr/drivers/i2c/libdrivers__i2c.a(i2c_common.c.obj)
                              (--whole-archive)
zephyr/drivers/i2c/libdrivers__i2c.a(i2c_ll_stm32_v1.c.obj)
                              (--whole-archive)
zephyr/drivers/i2c/libdrivers__i2c.a(i2c_ll_stm32.c.obj)
                              (--whole-archive)
zephyr/drivers/pinctrl/libdrivers__pinctrl.a(common.c.obj)
                              (--whole-archive)
zephyr/drivers/pinctrl/libdrivers__pinctrl.a(pinctrl_stm32.c.obj)
                              (--whole-archive)
zephyr/drivers/reset/libdrivers__reset.a(reset_stm32.c.obj)
                              (--whole-archive)
zephyr/drivers/serial/libdrivers__serial.a(uart_stm32.c.obj)
                              (--whole-archive)
zephyr/drivers/timer/libdrivers__timer.a(sys_clock_init.c.obj)
                              (--whole-archive)
zephyr/drivers/timer/libdrivers__timer.a(cortex_m_systick.c.obj)
                              (--whole-archive)
modules/stm32/stm32cube/lib..__modules__hal__stm32__stm32cube.a(system_stm32f1xx.c.obj)
                              (--whole-archive)
modules/stm32/stm32cube/lib..__modules__hal__stm32__stm32cube.a(stm32f1xx_hal.c.obj)
                              (--whole-archive)
modules/stm32/stm32cube/lib..__modules__hal__stm32__stm32cube.a(stm32f1xx_hal_rcc.c.obj)
                              (--whole-archive)
modules/stm32/stm32cube/lib..__modules__hal__stm32__stm32cube.a(stm32f1xx_hal_rcc_ex.c.obj)
                              (--whole-archive)
modules/stm32/stm32cube/lib..__modules__hal__stm32__stm32cube.a(stm32f1xx_ll_i2c.c.obj)
                              (--whole-archive)
modules/stm32/stm32cube/lib..__modules__hal__stm32__stm32cube.a(stm32f1xx_ll_utils.c.obj)
                              (--whole-archive)
zephyr/kernel/libkernel.a(device.c.obj)
                              app/libapp.a(moteur.c.obj) (z_impl_device_is_ready)
zephyr/kernel/libkernel.a(fatal.c.obj)
                              zephyr/arch/arch/arm/core/libarch__arm__core.a(fatal.c.obj) (z_fatal_error)
zephyr/kernel/libkernel.a(init.c.obj)
                              zephyr/arch/arch/arm/core/cortex_m/libarch__arm__core__cortex_m.a(reset.S.obj) (z_early_memset)
zephyr/kernel/libkernel.a(init_static.c.obj)
                              zephyr/kernel/libkernel.a(init.c.obj) (z_init_static)
zephyr/kernel/libkernel.a(idle.c.obj)
                              zephyr/kernel/libkernel.a(init.c.obj) (idle)
zephyr/kernel/libkernel.a(mutex.c.obj)
                              zephyr/lib/libc/picolibc/liblib__libc__picolibc.a(libc-hooks.c.obj) (z_impl_k_mutex_init)
zephyr/kernel/libkernel.a(sem.c.obj)
                              zephyr/libzephyr.a(sem.c.obj) (z_impl_k_sem_init)
zephyr/kernel/libkernel.a(thread.c.obj)
                              zephyr/libzephyr.a(mpsc_pbuf.c.obj) (k_is_in_isr)
zephyr/kernel/libkernel.a(sched.c.obj)
                              zephyr/kernel/libkernel.a(init.c.obj) (_thread_dummy)
zephyr/kernel/libkernel.a(timeslicing.c.obj)
                              zephyr/kernel/libkernel.a(sched.c.obj) (z_reset_time_slice)
zephyr/kernel/libkernel.a(xip.c.obj)
                              zephyr/arch/arch/arm/core/cortex_m/libarch__arm__core__cortex_m.a(prep_c.c.obj) (z_data_copy)
zephyr/kernel/libkernel.a(timeout.c.obj)
                              zephyr/kernel/libkernel.a(init.c.obj) (z_add_timeout)
zephyr/kernel/libkernel.a(timer.c.obj)
                              zephyr/libzephyr.a(log_core.c.obj) (k_timer_init)
zephyr/kernel/libkernel.a(banner.c.obj)
                              zephyr/kernel/libkernel.a(init.c.obj) (boot_banner)
/home/romain/zephyr-sdk-0.16.1/arm-zephyr-eabi/bin/../lib/gcc/arm-zephyr-eabi/12.2.0/thumb/v7-m/nofp/libgcc.a(_arm_muldf3.o)
                              zephyr/libzephyr.a(timeutil.c.obj) (__aeabi_dmul)
/home/romain/zephyr-sdk-0.16.1/arm-zephyr-eabi/bin/../lib/gcc/arm-zephyr-eabi/12.2.0/thumb/v7-m/nofp/libgcc.a(_arm_mulsf3.o)
                              app/libapp.a(main.c.obj) (__aeabi_fmul)
/home/romain/zephyr-sdk-0.16.1/arm-zephyr-eabi/bin/../lib/gcc/arm-zephyr-eabi/12.2.0/thumb/v7-m/nofp/libgcc.a(_arm_addsubdf3.o)
                              zephyr/libzephyr.a(timeutil.c.obj) (__aeabi_dsub)
/home/romain/zephyr-sdk-0.16.1/arm-zephyr-eabi/bin/../lib/gcc/arm-zephyr-eabi/12.2.0/thumb/v7-m/nofp/libgcc.a(_arm_muldivdf3.o)
                              zephyr/libzephyr.a(timeutil.c.obj) (__aeabi_ddiv)
/home/romain/zephyr-sdk-0.16.1/arm-zephyr-eabi/bin/../lib/gcc/arm-zephyr-eabi/12.2.0/thumb/v7-m/nofp/libgcc.a(_arm_truncdfsf2.o)
                              zephyr/libzephyr.a(timeutil.c.obj) (__aeabi_d2f)
/home/romain/zephyr-sdk-0.16.1/arm-zephyr-eabi/bin/../lib/gcc/arm-zephyr-eabi/12.2.0/thumb/v7-m/nofp/libgcc.a(_arm_addsubsf3.o)
                              app/libapp.a(main.c.obj) (__aeabi_fsub)
/home/romain/zephyr-sdk-0.16.1/arm-zephyr-eabi/bin/../lib/gcc/arm-zephyr-eabi/12.2.0/thumb/v7-m/nofp/libgcc.a(_arm_muldivsf3.o)
                              app/libapp.a(boussole.c.obj) (__aeabi_fdiv)
/home/romain/zephyr-sdk-0.16.1/arm-zephyr-eabi/bin/../lib/gcc/arm-zephyr-eabi/12.2.0/thumb/v7-m/nofp/libgcc.a(_arm_cmpsf2.o)
                              zephyr/libzephyr.a(timeutil.c.obj) (__aeabi_fcmpeq)
/home/romain/zephyr-sdk-0.16.1/arm-zephyr-eabi/bin/../lib/gcc/arm-zephyr-eabi/12.2.0/thumb/v7-m/nofp/libgcc.a(_arm_fixsfsi.o)
                              app/libapp.a(pid.c.obj) (__aeabi_f2iz)
/home/romain/zephyr-sdk-0.16.1/arm-zephyr-eabi/bin/../lib/gcc/arm-zephyr-eabi/12.2.0/thumb/v7-m/nofp/libgcc.a(_aeabi_ldivmod.o)
                              zephyr/libzephyr.a(timeutil.c.obj) (__aeabi_ldivmod)
/home/romain/zephyr-sdk-0.16.1/arm-zephyr-eabi/bin/../lib/gcc/arm-zephyr-eabi/12.2.0/thumb/v7-m/nofp/libgcc.a(_aeabi_uldivmod.o)
                              zephyr/libzephyr.a(cbprintf_complete.c.obj) (__aeabi_uldivmod)
/home/romain/zephyr-sdk-0.16.1/arm-zephyr-eabi/bin/../lib/gcc/arm-zephyr-eabi/12.2.0/thumb/v7-m/nofp/libgcc.a(_popcountsi2.o)
                              zephyr/libzephyr.a(bitarray.c.obj) (__popcountsi2)
/home/romain/zephyr-sdk-0.16.1/arm-zephyr-eabi/bin/../lib/gcc/arm-zephyr-eabi/12.2.0/thumb/v7-m/nofp/libgcc.a(_fixdfdi.o)
                              zephyr/libzephyr.a(timeutil.c.obj) (__aeabi_d2lz)
/home/romain/zephyr-sdk-0.16.1/arm-zephyr-eabi/bin/../lib/gcc/arm-zephyr-eabi/12.2.0/thumb/v7-m/nofp/libgcc.a(_fixunsdfdi.o)
                              /home/romain/zephyr-sdk-0.16.1/arm-zephyr-eabi/bin/../lib/gcc/arm-zephyr-eabi/12.2.0/thumb/v7-m/nofp/libgcc.a(_fixdfdi.o) (__aeabi_d2ulz)
/home/romain/zephyr-sdk-0.16.1/arm-zephyr-eabi/bin/../lib/gcc/arm-zephyr-eabi/12.2.0/thumb/v7-m/nofp/libgcc.a(_udivmoddi4.o)
                              /home/romain/zephyr-sdk-0.16.1/arm-zephyr-eabi/bin/../lib/gcc/arm-zephyr-eabi/12.2.0/thumb/v7-m/nofp/libgcc.a(_aeabi_ldivmod.o) (__udivmoddi4)
/home/romain/zephyr-sdk-0.16.1/arm-zephyr-eabi/bin/../lib/gcc/arm-zephyr-eabi/12.2.0/thumb/v7-m/nofp/libgcc.a(_dvmd_tls.o)
                              /home/romain/zephyr-sdk-0.16.1/arm-zephyr-eabi/bin/../lib/gcc/arm-zephyr-eabi/12.2.0/thumb/v7-m/nofp/libgcc.a(_aeabi_ldivmod.o) (__aeabi_ldiv0)
/home/romain/zephyr-sdk-0.16.1/arm-zephyr-eabi/bin/../lib/gcc/arm-zephyr-eabi/12.2.0/thumb/v7-m/nofp/libgcc.a(_arm_cmpdf2.o)
                              /home/romain/zephyr-sdk-0.16.1/arm-zephyr-eabi/bin/../lib/gcc/arm-zephyr-eabi/12.2.0/thumb/v7-m/nofp/libgcc.a(_fixdfdi.o) (__aeabi_dcmplt)
/home/romain/zephyr-sdk-0.16.1/arm-zephyr-eabi/bin/../lib/gcc/arm-zephyr-eabi/12.2.0/thumb/v7-m/nofp/libgcc.a(_arm_fixunsdfsi.o)
                              /home/romain/zephyr-sdk-0.16.1/arm-zephyr-eabi/bin/../lib/gcc/arm-zephyr-eabi/12.2.0/thumb/v7-m/nofp/libgcc.a(_fixunsdfdi.o) (__aeabi_d2uiz)
zephyr/arch/common/libisr_tables.a(isr_tables.c.obj)
                              zephyr/arch/arch/arm/core/cortex_m/libarch__arm__core__cortex_m.a(isr_wrapper.c.obj) (_sw_isr_table)
/home/romain/zephyr-sdk-0.16.1/arm-zephyr-eabi/bin/../lib/gcc/../../picolibc/arm-zephyr-eabi/lib/thumb/v7-m/nofp/libc.a(libc_ctype_ctype_.c.o)
                              zephyr/libzephyr.a(cbprintf_complete.c.obj) (_ctype_)
/home/romain/zephyr-sdk-0.16.1/arm-zephyr-eabi/bin/../lib/gcc/../../picolibc/arm-zephyr-eabi/lib/thumb/v7-m/nofp/libc.a(libc_errno_errno.c.o)
                              zephyr/libzephyr.a(timeutil.c.obj) (errno)
/home/romain/zephyr-sdk-0.16.1/arm-zephyr-eabi/bin/../lib/gcc/../../picolibc/arm-zephyr-eabi/lib/thumb/v7-m/nofp/libc.a(libc_string_strnlen.c.o)
                              zephyr/libzephyr.a(cbprintf_complete.c.obj) (strnlen)
/home/romain/zephyr-sdk-0.16.1/arm-zephyr-eabi/bin/../lib/gcc/../../picolibc/arm-zephyr-eabi/lib/thumb/v7-m/nofp/libc.a(libc_tinystdio_snprintf.c.o)
                              zephyr/libzephyr.a(log_output.c.obj) (snprintf)
/home/romain/zephyr-sdk-0.16.1/arm-zephyr-eabi/bin/../lib/gcc/../../picolibc/arm-zephyr-eabi/lib/thumb/v7-m/nofp/libc.a(libc_tinystdio_vfprintf.c.o)
                              (__d_vfprintf)
/home/romain/zephyr-sdk-0.16.1/arm-zephyr-eabi/bin/../lib/gcc/../../picolibc/arm-zephyr-eabi/lib/thumb/v7-m/nofp/libc.a(libc_tinystdio_vfscanf.c.o)
                              (__d_vfscanf)
/home/romain/zephyr-sdk-0.16.1/arm-zephyr-eabi/bin/../lib/gcc/../../picolibc/arm-zephyr-eabi/lib/thumb/v7-m/nofp/libc.a(libc_tinystdio_dtoa_ryu.c.o)
                              /home/romain/zephyr-sdk-0.16.1/arm-zephyr-eabi/bin/../lib/gcc/../../picolibc/arm-zephyr-eabi/lib/thumb/v7-m/nofp/libc.a(libc_tinystdio_vfprintf.c.o) (__dtoa_engine)
/home/romain/zephyr-sdk-0.16.1/arm-zephyr-eabi/bin/../lib/gcc/../../picolibc/arm-zephyr-eabi/lib/thumb/v7-m/nofp/libc.a(libc_tinystdio_ryu_table.c.o)
                              /home/romain/zephyr-sdk-0.16.1/arm-zephyr-eabi/bin/../lib/gcc/../../picolibc/arm-zephyr-eabi/lib/thumb/v7-m/nofp/libc.a(libc_tinystdio_dtoa_ryu.c.o) (__pow5Factor)
/home/romain/zephyr-sdk-0.16.1/arm-zephyr-eabi/bin/../lib/gcc/../../picolibc/arm-zephyr-eabi/lib/thumb/v7-m/nofp/libc.a(libc_tinystdio_atod_ryu.c.o)
                              /home/romain/zephyr-sdk-0.16.1/arm-zephyr-eabi/bin/../lib/gcc/../../picolibc/arm-zephyr-eabi/lib/thumb/v7-m/nofp/libc.a(libc_tinystdio_vfscanf.c.o) (__atod_engine)
/home/romain/zephyr-sdk-0.16.1/arm-zephyr-eabi/bin/../lib/gcc/../../picolibc/arm-zephyr-eabi/lib/thumb/v7-m/nofp/libc.a(libc_tinystdio_atof_ryu.c.o)
                              /home/romain/zephyr-sdk-0.16.1/arm-zephyr-eabi/bin/../lib/gcc/../../picolibc/arm-zephyr-eabi/lib/thumb/v7-m/nofp/libc.a(libc_tinystdio_vfscanf.c.o) (__atof_engine)
/home/romain/zephyr-sdk-0.16.1/arm-zephyr-eabi/bin/../lib/gcc/../../picolibc/arm-zephyr-eabi/lib/thumb/v7-m/nofp/libc.a(libc_tinystdio_ryu_log2pow5.c.o)
                              /home/romain/zephyr-sdk-0.16.1/arm-zephyr-eabi/bin/../lib/gcc/../../picolibc/arm-zephyr-eabi/lib/thumb/v7-m/nofp/libc.a(libc_tinystdio_atod_ryu.c.o) (__log2pow5)
/home/romain/zephyr-sdk-0.16.1/arm-zephyr-eabi/bin/../lib/gcc/../../picolibc/arm-zephyr-eabi/lib/thumb/v7-m/nofp/libc.a(libc_tinystdio_ryu_log10.c.o)
                              /home/romain/zephyr-sdk-0.16.1/arm-zephyr-eabi/bin/../lib/gcc/../../picolibc/arm-zephyr-eabi/lib/thumb/v7-m/nofp/libc.a(libc_tinystdio_dtoa_ryu.c.o) (__log10Pow2)
/home/romain/zephyr-sdk-0.16.1/arm-zephyr-eabi/bin/../lib/gcc/../../picolibc/arm-zephyr-eabi/lib/thumb/v7-m/nofp/libc.a(libc_tinystdio_ryu_pow5bits.c.o)
                              /home/romain/zephyr-sdk-0.16.1/arm-zephyr-eabi/bin/../lib/gcc/../../picolibc/arm-zephyr-eabi/lib/thumb/v7-m/nofp/libc.a(libc_tinystdio_dtoa_ryu.c.o) (__pow5bits)
/home/romain/zephyr-sdk-0.16.1/arm-zephyr-eabi/bin/../lib/gcc/../../picolibc/arm-zephyr-eabi/lib/thumb/v7-m/nofp/libc.a(libc_tinystdio_ryu_umul128.c.o)
                              /home/romain/zephyr-sdk-0.16.1/arm-zephyr-eabi/bin/../lib/gcc/../../picolibc/arm-zephyr-eabi/lib/thumb/v7-m/nofp/libc.a(libc_tinystdio_dtoa_ryu.c.o) (__umul128)
/home/romain/zephyr-sdk-0.16.1/arm-zephyr-eabi/bin/../lib/gcc/../../picolibc/arm-zephyr-eabi/lib/thumb/v7-m/nofp/libc.a(libc_tinystdio_ryu_divpow2.c.o)
                              /home/romain/zephyr-sdk-0.16.1/arm-zephyr-eabi/bin/../lib/gcc/../../picolibc/arm-zephyr-eabi/lib/thumb/v7-m/nofp/libc.a(libc_tinystdio_atof_ryu.c.o) (__mulPow5InvDivPow2)
/home/romain/zephyr-sdk-0.16.1/arm-zephyr-eabi/bin/../lib/gcc/../../picolibc/arm-zephyr-eabi/lib/thumb/v7-m/nofp/libc.a(libm_math_sf_atan2.c.o)
                              app/libapp.a(boussole.c.obj) (atan2f)
/home/romain/zephyr-sdk-0.16.1/arm-zephyr-eabi/bin/../lib/gcc/../../picolibc/arm-zephyr-eabi/lib/thumb/v7-m/nofp/libc.a(libm_math_sf_fmod.c.o)
                              app/libapp.a(main.c.obj) (fmodf)
/home/romain/zephyr-sdk-0.16.1/arm-zephyr-eabi/bin/../lib/gcc/../../picolibc/arm-zephyr-eabi/lib/thumb/v7-m/nofp/libc.a(libm_common_sf_fpclassify.c.o)
                              /home/romain/zephyr-sdk-0.16.1/arm-zephyr-eabi/bin/../lib/gcc/../../picolibc/arm-zephyr-eabi/lib/thumb/v7-m/nofp/libc.a(libm_math_sf_fmod.c.o) (__fpclassifyf)
/home/romain/zephyr-sdk-0.16.1/arm-zephyr-eabi/bin/../lib/gcc/../../picolibc/arm-zephyr-eabi/lib/thumb/v7-m/nofp/libc.a(libm_common_math_errf_invalidf.c.o)
                              /home/romain/zephyr-sdk-0.16.1/arm-zephyr-eabi/bin/../lib/gcc/../../picolibc/arm-zephyr-eabi/lib/thumb/v7-m/nofp/libc.a(libm_math_sf_fmod.c.o) (__math_invalidf)
/home/romain/zephyr-sdk-0.16.1/arm-zephyr-eabi/bin/../lib/gcc/../../picolibc/arm-zephyr-eabi/lib/thumb/v7-m/nofp/libc.a(strcmp.S.o)
                              zephyr/libzephyr.a(log_mgmt.c.obj) (strcmp)
/home/romain/zephyr-sdk-0.16.1/arm-zephyr-eabi/bin/../lib/gcc/../../picolibc/arm-zephyr-eabi/lib/thumb/v7-m/nofp/libc.a(memcpy.c.o)
                              zephyr/libzephyr.a(heap.c.obj) (memcpy)
/home/romain/zephyr-sdk-0.16.1/arm-zephyr-eabi/bin/../lib/gcc/../../picolibc/arm-zephyr-eabi/lib/thumb/v7-m/nofp/libc.a(memset.c.o)
                              zephyr/libzephyr.a(heap.c.obj) (memset)
/home/romain/zephyr-sdk-0.16.1/arm-zephyr-eabi/bin/../lib/gcc/../../picolibc/arm-zephyr-eabi/lib/thumb/v7-m/nofp/libc.a(strlen.S.o)
                              zephyr/libzephyr.a(cbprintf_packaged.c.obj) (strlen)
/home/romain/zephyr-sdk-0.16.1/arm-zephyr-eabi/bin/../lib/gcc/../../picolibc/arm-zephyr-eabi/lib/thumb/v7-m/nofp/libc.a(libc_string_strchr.c.o)
                              /home/romain/zephyr-sdk-0.16.1/arm-zephyr-eabi/bin/../lib/gcc/../../picolibc/arm-zephyr-eabi/lib/thumb/v7-m/nofp/libc.a(libc_tinystdio_vfscanf.c.o) (strchr)
/home/romain/zephyr-sdk-0.16.1/arm-zephyr-eabi/bin/../lib/gcc/../../picolibc/arm-zephyr-eabi/lib/thumb/v7-m/nofp/libc.a(libc_tinystdio_fgetc.c.o)
                              /home/romain/zephyr-sdk-0.16.1/arm-zephyr-eabi/bin/../lib/gcc/../../picolibc/arm-zephyr-eabi/lib/thumb/v7-m/nofp/libc.a(libc_tinystdio_vfscanf.c.o) (fgetc)
/home/romain/zephyr-sdk-0.16.1/arm-zephyr-eabi/bin/../lib/gcc/../../picolibc/arm-zephyr-eabi/lib/thumb/v7-m/nofp/libc.a(libc_tinystdio_filestrput.c.o)
                              /home/romain/zephyr-sdk-0.16.1/arm-zephyr-eabi/bin/../lib/gcc/../../picolibc/arm-zephyr-eabi/lib/thumb/v7-m/nofp/libc.a(libc_tinystdio_snprintf.c.o) (__file_str_put)
/home/romain/zephyr-sdk-0.16.1/arm-zephyr-eabi/bin/../lib/gcc/../../picolibc/arm-zephyr-eabi/lib/thumb/v7-m/nofp/libc.a(libc_tinystdio_ungetc.c.o)
                              /home/romain/zephyr-sdk-0.16.1/arm-zephyr-eabi/bin/../lib/gcc/../../picolibc/arm-zephyr-eabi/lib/thumb/v7-m/nofp/libc.a(libc_tinystdio_vfscanf.c.o) (ungetc)
/home/romain/zephyr-sdk-0.16.1/arm-zephyr-eabi/bin/../lib/gcc/../../picolibc/arm-zephyr-eabi/lib/thumb/v7-m/nofp/libc.a(libm_math_sf_atan.c.o)
                              /home/romain/zephyr-sdk-0.16.1/arm-zephyr-eabi/bin/../lib/gcc/../../picolibc/arm-zephyr-eabi/lib/thumb/v7-m/nofp/libc.a(libm_math_sf_atan2.c.o) (atanf)

Discarded input sections

 .text          0x0000000000000000        0x0 zephyr/CMakeFiles/zephyr_pre0.dir/misc/empty_file.c.obj
 .data          0x0000000000000000        0x0 zephyr/CMakeFiles/zephyr_pre0.dir/misc/empty_file.c.obj
 .bss           0x0000000000000000        0x0 zephyr/CMakeFiles/zephyr_pre0.dir/misc/empty_file.c.obj
 .debug_line    0x0000000000000000        0x0 zephyr/CMakeFiles/zephyr_pre0.dir/misc/empty_file.c.obj
 .debug_str     0x0000000000000000      0x1c3 zephyr/CMakeFiles/zephyr_pre0.dir/misc/empty_file.c.obj
 .comment       0x0000000000000000       0x21 zephyr/CMakeFiles/zephyr_pre0.dir/misc/empty_file.c.obj
 .text          0x0000000000000000        0x0 zephyr/CMakeFiles/offsets.dir/./arch/arm/core/offsets/offsets.c.obj
 .data          0x0000000000000000        0x0 zephyr/CMakeFiles/offsets.dir/./arch/arm/core/offsets/offsets.c.obj
 .bss           0x0000000000000000        0x0 zephyr/CMakeFiles/offsets.dir/./arch/arm/core/offsets/offsets.c.obj
 .text          0x0000000000000000        0x0 app/libapp.a(main.c.obj)
 .data          0x0000000000000000        0x0 app/libapp.a(main.c.obj)
 .bss           0x0000000000000000        0x0 app/libapp.a(main.c.obj)
 .rodata.thread_pid_id
                0x0000000000000000        0x4 app/libapp.a(main.c.obj)
 .rodata.thread_capteurs_id
                0x0000000000000000        0x4 app/libapp.a(main.c.obj)
 .text          0x0000000000000000        0x0 app/libapp.a(moteur.c.obj)
 .data          0x0000000000000000        0x0 app/libapp.a(moteur.c.obj)
 .bss           0x0000000000000000        0x0 app/libapp.a(moteur.c.obj)
 .text          0x0000000000000000        0x0 app/libapp.a(codeur.c.obj)
 .data          0x0000000000000000        0x0 app/libapp.a(codeur.c.obj)
 .bss           0x0000000000000000        0x0 app/libapp.a(codeur.c.obj)
 .text.codeur_reset
                0x0000000000000000       0x20 app/libapp.a(codeur.c.obj)
 .text          0x0000000000000000        0x0 app/libapp.a(boussole.c.obj)
 .data          0x0000000000000000        0x0 app/libapp.a(boussole.c.obj)
 .bss           0x0000000000000000        0x0 app/libapp.a(boussole.c.obj)
 .text          0x0000000000000000        0x0 app/libapp.a(pid.c.obj)
 .data          0x0000000000000000        0x0 app/libapp.a(pid.c.obj)
 .bss           0x0000000000000000        0x0 app/libapp.a(pid.c.obj)
 .text          0x0000000000000000        0x0 zephyr/libzephyr.a(heap.c.obj)
 .data          0x0000000000000000        0x0 zephyr/libzephyr.a(heap.c.obj)
 .bss           0x0000000000000000        0x0 zephyr/libzephyr.a(heap.c.obj)
 .text.free_list_remove_bidx
                0x0000000000000000       0x3a zephyr/libzephyr.a(heap.c.obj)
 .text.free_list_remove
                0x0000000000000000       0x1a zephyr/libzephyr.a(heap.c.obj)
 .text.alloc_chunk
                0x0000000000000000       0x6e zephyr/libzephyr.a(heap.c.obj)
 .text.merge_chunks
                0x0000000000000000       0x2c zephyr/libzephyr.a(heap.c.obj)
 .text.split_chunks
                0x0000000000000000       0x34 zephyr/libzephyr.a(heap.c.obj)
 .text.free_chunk
                0x0000000000000000       0x62 zephyr/libzephyr.a(heap.c.obj)
 .text.sys_heap_free
                0x0000000000000000       0x1e zephyr/libzephyr.a(heap.c.obj)
 .text.sys_heap_usable_size
                0x0000000000000000       0x1e zephyr/libzephyr.a(heap.c.obj)
 .text.sys_heap_alloc
                0x0000000000000000       0x52 zephyr/libzephyr.a(heap.c.obj)
 .text.sys_heap_aligned_alloc
                0x0000000000000000       0xd0 zephyr/libzephyr.a(heap.c.obj)
 .text.sys_heap_aligned_realloc
                0x0000000000000000      0x128 zephyr/libzephyr.a(heap.c.obj)
 .text          0x0000000000000000        0x0 zephyr/libzephyr.a(cbprintf_packaged.c.obj)
 .data          0x0000000000000000        0x0 zephyr/libzephyr.a(cbprintf_packaged.c.obj)
 .bss           0x0000000000000000        0x0 zephyr/libzephyr.a(cbprintf_packaged.c.obj)
 .text.cbprintf_package
                0x0000000000000000       0x1e zephyr/libzephyr.a(cbprintf_packaged.c.obj)
 .text          0x0000000000000000        0x0 zephyr/libzephyr.a(printk.c.obj)
 .data          0x0000000000000000        0x0 zephyr/libzephyr.a(printk.c.obj)
 .bss           0x0000000000000000        0x0 zephyr/libzephyr.a(printk.c.obj)
 .text.__printk_get_hook
                0x0000000000000000        0xc zephyr/libzephyr.a(printk.c.obj)
 .text.vprintk  0x0000000000000000        0x4 zephyr/libzephyr.a(printk.c.obj)
 .text.z_impl_k_str_out
                0x0000000000000000       0x1c zephyr/libzephyr.a(printk.c.obj)
 .text          0x0000000000000000        0x0 zephyr/libzephyr.a(sem.c.obj)
 .data          0x0000000000000000        0x0 zephyr/libzephyr.a(sem.c.obj)
 .bss           0x0000000000000000        0x0 zephyr/libzephyr.a(sem.c.obj)
 .text.sys_sem_init
                0x0000000000000000        0xa zephyr/libzephyr.a(sem.c.obj)
 .text.sys_sem_give
                0x0000000000000000        0xa zephyr/libzephyr.a(sem.c.obj)
 .text.sys_sem_take
                0x0000000000000000       0x1e zephyr/libzephyr.a(sem.c.obj)
 .text.sys_sem_count_get
                0x0000000000000000        0x4 zephyr/libzephyr.a(sem.c.obj)
 .debug_info    0x0000000000000000      0x4dd zephyr/libzephyr.a(sem.c.obj)
 .debug_abbrev  0x0000000000000000      0x22a zephyr/libzephyr.a(sem.c.obj)
 .debug_loc     0x0000000000000000      0x21a zephyr/libzephyr.a(sem.c.obj)
 .debug_aranges
                0x0000000000000000       0x38 zephyr/libzephyr.a(sem.c.obj)
 .debug_ranges  0x0000000000000000       0x70 zephyr/libzephyr.a(sem.c.obj)
 .debug_line    0x0000000000000000      0x32b zephyr/libzephyr.a(sem.c.obj)
 .debug_str     0x0000000000000000      0x3c1 zephyr/libzephyr.a(sem.c.obj)
 .comment       0x0000000000000000       0x21 zephyr/libzephyr.a(sem.c.obj)
 .debug_frame   0x0000000000000000       0x68 zephyr/libzephyr.a(sem.c.obj)
 .text          0x0000000000000000        0x0 zephyr/libzephyr.a(thread_entry.c.obj)
 .data          0x0000000000000000        0x0 zephyr/libzephyr.a(thread_entry.c.obj)
 .bss           0x0000000000000000        0x0 zephyr/libzephyr.a(thread_entry.c.obj)
 .text          0x0000000000000000        0x0 zephyr/libzephyr.a(cbprintf_complete.c.obj)
 .data          0x0000000000000000        0x0 zephyr/libzephyr.a(cbprintf_complete.c.obj)
 .bss           0x0000000000000000        0x0 zephyr/libzephyr.a(cbprintf_complete.c.obj)
 .text.extract_decimal
                0x0000000000000000       0x2c zephyr/libzephyr.a(cbprintf_complete.c.obj)
 .text._ldiv5   0x0000000000000000       0x30 zephyr/libzephyr.a(cbprintf_complete.c.obj)
 .text._get_digit
                0x0000000000000000       0x2e zephyr/libzephyr.a(cbprintf_complete.c.obj)
 .text.encode_uint
                0x0000000000000000       0x9c zephyr/libzephyr.a(cbprintf_complete.c.obj)
 .text.outs     0x0000000000000000       0x2e zephyr/libzephyr.a(cbprintf_complete.c.obj)
 .rodata.z_cbvprintf_impl.str1.1
                0x0000000000000000        0x6 zephyr/libzephyr.a(cbprintf_complete.c.obj)
 .text.z_cbvprintf_impl
                0x0000000000000000      0xcf0 zephyr/libzephyr.a(cbprintf_complete.c.obj)
 .debug_info    0x0000000000000000     0x15f4 zephyr/libzephyr.a(cbprintf_complete.c.obj)
 .debug_abbrev  0x0000000000000000      0x459 zephyr/libzephyr.a(cbprintf_complete.c.obj)
 .debug_loc     0x0000000000000000     0x1c18 zephyr/libzephyr.a(cbprintf_complete.c.obj)
 .debug_aranges
                0x0000000000000000       0x48 zephyr/libzephyr.a(cbprintf_complete.c.obj)
 .debug_ranges  0x0000000000000000      0x290 zephyr/libzephyr.a(cbprintf_complete.c.obj)
 .debug_line    0x0000000000000000     0x1461 zephyr/libzephyr.a(cbprintf_complete.c.obj)
 .debug_str     0x0000000000000000      0x73e zephyr/libzephyr.a(cbprintf_complete.c.obj)
 .comment       0x0000000000000000       0x21 zephyr/libzephyr.a(cbprintf_complete.c.obj)
 .debug_frame   0x0000000000000000       0xe0 zephyr/libzephyr.a(cbprintf_complete.c.obj)
 .text          0x0000000000000000        0x0 zephyr/libzephyr.a(assert.c.obj)
 .data          0x0000000000000000        0x0 zephyr/libzephyr.a(assert.c.obj)
 .bss           0x0000000000000000        0x0 zephyr/libzephyr.a(assert.c.obj)
 .text.assert_post_action
                0x0000000000000000       0x12 zephyr/libzephyr.a(assert.c.obj)
 .text.assert_print
                0x0000000000000000       0x1a zephyr/libzephyr.a(assert.c.obj)
 .debug_info    0x0000000000000000      0x247 zephyr/libzephyr.a(assert.c.obj)
 .debug_abbrev  0x0000000000000000      0x1ca zephyr/libzephyr.a(assert.c.obj)
 .debug_loc     0x0000000000000000       0x51 zephyr/libzephyr.a(assert.c.obj)
 .debug_aranges
                0x0000000000000000       0x28 zephyr/libzephyr.a(assert.c.obj)
 .debug_ranges  0x0000000000000000       0x18 zephyr/libzephyr.a(assert.c.obj)
 .debug_line    0x0000000000000000      0x309 zephyr/libzephyr.a(assert.c.obj)
 .debug_str     0x0000000000000000      0x37b zephyr/libzephyr.a(assert.c.obj)
 .comment       0x0000000000000000       0x21 zephyr/libzephyr.a(assert.c.obj)
 .debug_frame   0x0000000000000000       0x50 zephyr/libzephyr.a(assert.c.obj)
 .text          0x0000000000000000        0x0 zephyr/libzephyr.a(mpsc_pbuf.c.obj)
 .data          0x0000000000000000        0x0 zephyr/libzephyr.a(mpsc_pbuf.c.obj)
 .bss           0x0000000000000000        0x0 zephyr/libzephyr.a(mpsc_pbuf.c.obj)
 .text.mpsc_pbuf_put_word
                0x0000000000000000       0xbe zephyr/libzephyr.a(mpsc_pbuf.c.obj)
 .text.mpsc_pbuf_put_word_ext
                0x0000000000000000       0xf0 zephyr/libzephyr.a(mpsc_pbuf.c.obj)
 .text.mpsc_pbuf_put_data
                0x0000000000000000       0xea zephyr/libzephyr.a(mpsc_pbuf.c.obj)
 .text.mpsc_pbuf_get_utilization
                0x0000000000000000       0x16 zephyr/libzephyr.a(mpsc_pbuf.c.obj)
 .text.mpsc_pbuf_get_max_utilization
                0x0000000000000000       0x16 zephyr/libzephyr.a(mpsc_pbuf.c.obj)
 .text          0x0000000000000000        0x0 zephyr/libzephyr.a(reboot.c.obj)
 .data          0x0000000000000000        0x0 zephyr/libzephyr.a(reboot.c.obj)
 .bss           0x0000000000000000        0x0 zephyr/libzephyr.a(reboot.c.obj)
 .rodata.sys_reboot.str1.1
                0x0000000000000000       0x29 zephyr/libzephyr.a(reboot.c.obj)
 .text.sys_reboot
                0x0000000000000000       0x2c zephyr/libzephyr.a(reboot.c.obj)
 .debug_info    0x0000000000000000      0x243 zephyr/libzephyr.a(reboot.c.obj)
 .debug_abbrev  0x0000000000000000      0x1b8 zephyr/libzephyr.a(reboot.c.obj)
 .debug_loc     0x0000000000000000       0x38 zephyr/libzephyr.a(reboot.c.obj)
 .debug_aranges
                0x0000000000000000       0x20 zephyr/libzephyr.a(reboot.c.obj)
 .debug_ranges  0x0000000000000000       0x40 zephyr/libzephyr.a(reboot.c.obj)
 .debug_line    0x0000000000000000      0x354 zephyr/libzephyr.a(reboot.c.obj)
 .debug_str     0x0000000000000000      0x305 zephyr/libzephyr.a(reboot.c.obj)
 .comment       0x0000000000000000       0x21 zephyr/libzephyr.a(reboot.c.obj)
 .debug_frame   0x0000000000000000       0x28 zephyr/libzephyr.a(reboot.c.obj)
 .text          0x0000000000000000        0x0 zephyr/libzephyr.a(dec.c.obj)
 .data          0x0000000000000000        0x0 zephyr/libzephyr.a(dec.c.obj)
 .bss           0x0000000000000000        0x0 zephyr/libzephyr.a(dec.c.obj)
 .text.u8_to_dec
                0x0000000000000000       0x52 zephyr/libzephyr.a(dec.c.obj)
 .debug_info    0x0000000000000000      0x12b zephyr/libzephyr.a(dec.c.obj)
 .debug_abbrev  0x0000000000000000       0x9c zephyr/libzephyr.a(dec.c.obj)
 .debug_loc     0x0000000000000000      0x128 zephyr/libzephyr.a(dec.c.obj)
 .debug_aranges
                0x0000000000000000       0x20 zephyr/libzephyr.a(dec.c.obj)
 .debug_ranges  0x0000000000000000       0x10 zephyr/libzephyr.a(dec.c.obj)
 .debug_line    0x0000000000000000      0x1ae zephyr/libzephyr.a(dec.c.obj)
 .debug_str     0x0000000000000000      0x298 zephyr/libzephyr.a(dec.c.obj)
 .comment       0x0000000000000000       0x21 zephyr/libzephyr.a(dec.c.obj)
 .debug_frame   0x0000000000000000       0x30 zephyr/libzephyr.a(dec.c.obj)
 .text          0x0000000000000000        0x0 zephyr/libzephyr.a(hex.c.obj)
 .data          0x0000000000000000        0x0 zephyr/libzephyr.a(hex.c.obj)
 .bss           0x0000000000000000        0x0 zephyr/libzephyr.a(hex.c.obj)
 .text.char2hex
                0x0000000000000000       0x30 zephyr/libzephyr.a(hex.c.obj)
 .text.hex2char
                0x0000000000000000       0x1c zephyr/libzephyr.a(hex.c.obj)
 .text.bin2hex  0x0000000000000000       0x54 zephyr/libzephyr.a(hex.c.obj)
 .text.hex2bin  0x0000000000000000       0x70 zephyr/libzephyr.a(hex.c.obj)
 .debug_info    0x0000000000000000      0x29d zephyr/libzephyr.a(hex.c.obj)
 .debug_abbrev  0x0000000000000000      0x117 zephyr/libzephyr.a(hex.c.obj)
 .debug_loc     0x0000000000000000      0x2f4 zephyr/libzephyr.a(hex.c.obj)
 .debug_aranges
                0x0000000000000000       0x38 zephyr/libzephyr.a(hex.c.obj)
 .debug_ranges  0x0000000000000000       0x40 zephyr/libzephyr.a(hex.c.obj)
 .debug_line    0x0000000000000000      0x2fc zephyr/libzephyr.a(hex.c.obj)
 .debug_str     0x0000000000000000      0x29f zephyr/libzephyr.a(hex.c.obj)
 .comment       0x0000000000000000       0x21 zephyr/libzephyr.a(hex.c.obj)
 .debug_frame   0x0000000000000000       0x74 zephyr/libzephyr.a(hex.c.obj)
 .text          0x0000000000000000        0x0 zephyr/libzephyr.a(rb.c.obj)
 .data          0x0000000000000000        0x0 zephyr/libzephyr.a(rb.c.obj)
 .bss           0x0000000000000000        0x0 zephyr/libzephyr.a(rb.c.obj)
 .text.find_and_stack
                0x0000000000000000       0x3a zephyr/libzephyr.a(rb.c.obj)
 .text.stack_left_limb
                0x0000000000000000       0x40 zephyr/libzephyr.a(rb.c.obj)
 .text.set_child
                0x0000000000000000       0x12 zephyr/libzephyr.a(rb.c.obj)
 .text.rotate   0x0000000000000000       0xa8 zephyr/libzephyr.a(rb.c.obj)
 .text.z_rb_get_minmax
                0x0000000000000000       0x1a zephyr/libzephyr.a(rb.c.obj)
 .text.rb_insert
                0x0000000000000000      0x134 zephyr/libzephyr.a(rb.c.obj)
 .text.rb_remove
                0x0000000000000000      0x344 zephyr/libzephyr.a(rb.c.obj)
 .text.z_rb_walk
                0x0000000000000000       0x24 zephyr/libzephyr.a(rb.c.obj)
 .text.z_rb_child
                0x0000000000000000        0xe zephyr/libzephyr.a(rb.c.obj)
 .text.z_rb_is_black
                0x0000000000000000        0x8 zephyr/libzephyr.a(rb.c.obj)
 .text.rb_contains
                0x0000000000000000       0x2c zephyr/libzephyr.a(rb.c.obj)
 .text.z_rb_foreach_next
                0x0000000000000000       0x56 zephyr/libzephyr.a(rb.c.obj)
 .debug_info    0x0000000000000000     0x24dc zephyr/libzephyr.a(rb.c.obj)
 .debug_abbrev  0x0000000000000000      0x491 zephyr/libzephyr.a(rb.c.obj)
 .debug_loc     0x0000000000000000     0x2796 zephyr/libzephyr.a(rb.c.obj)
 .debug_aranges
                0x0000000000000000       0x78 zephyr/libzephyr.a(rb.c.obj)
 .debug_ranges  0x0000000000000000      0x5d8 zephyr/libzephyr.a(rb.c.obj)
 .debug_line    0x0000000000000000     0x1375 zephyr/libzephyr.a(rb.c.obj)
 .debug_str     0x0000000000000000      0x48f zephyr/libzephyr.a(rb.c.obj)
 .comment       0x0000000000000000       0x21 zephyr/libzephyr.a(rb.c.obj)
 .debug_frame   0x0000000000000000      0x17c zephyr/libzephyr.a(rb.c.obj)
 .text          0x0000000000000000        0x0 zephyr/libzephyr.a(timeutil.c.obj)
 .data          0x0000000000000000        0x0 zephyr/libzephyr.a(timeutil.c.obj)
 .bss           0x0000000000000000        0x0 zephyr/libzephyr.a(timeutil.c.obj)
 .text.timeutil_timegm64
                0x0000000000000000       0xe8 zephyr/libzephyr.a(timeutil.c.obj)
 .text.timeutil_timegm
                0x0000000000000000       0x20 zephyr/libzephyr.a(timeutil.c.obj)
 .text.timeutil_sync_state_update
                0x0000000000000000       0x5c zephyr/libzephyr.a(timeutil.c.obj)
 .text.timeutil_sync_state_set_skew
                0x0000000000000000       0x3a zephyr/libzephyr.a(timeutil.c.obj)
 .text.timeutil_sync_estimate_skew
                0x0000000000000000       0x96 zephyr/libzephyr.a(timeutil.c.obj)
 .text.timeutil_sync_ref_from_local
                0x0000000000000000       0xae zephyr/libzephyr.a(timeutil.c.obj)
 .text.timeutil_sync_local_from_ref
                0x0000000000000000       0xa8 zephyr/libzephyr.a(timeutil.c.obj)
 .text.timeutil_sync_skew_to_ppb
                0x0000000000000000       0x3c zephyr/libzephyr.a(timeutil.c.obj)
 .debug_info    0x0000000000000000      0x8d0 zephyr/libzephyr.a(timeutil.c.obj)
 .debug_abbrev  0x0000000000000000      0x1f1 zephyr/libzephyr.a(timeutil.c.obj)
 .debug_loc     0x0000000000000000      0x738 zephyr/libzephyr.a(timeutil.c.obj)
 .debug_aranges
                0x0000000000000000       0x58 zephyr/libzephyr.a(timeutil.c.obj)
 .debug_ranges  0x0000000000000000       0xc0 zephyr/libzephyr.a(timeutil.c.obj)
 .debug_line    0x0000000000000000      0x5f3 zephyr/libzephyr.a(timeutil.c.obj)
 .debug_str     0x0000000000000000      0x564 zephyr/libzephyr.a(timeutil.c.obj)
 .comment       0x0000000000000000       0x21 zephyr/libzephyr.a(timeutil.c.obj)
 .debug_frame   0x0000000000000000      0x11c zephyr/libzephyr.a(timeutil.c.obj)
 .text          0x0000000000000000        0x0 zephyr/libzephyr.a(bitarray.c.obj)
 .data          0x0000000000000000        0x0 zephyr/libzephyr.a(bitarray.c.obj)
 .bss           0x0000000000000000        0x0 zephyr/libzephyr.a(bitarray.c.obj)
 .text.setup_bundle_data.constprop.0
                0x0000000000000000       0x3a zephyr/libzephyr.a(bitarray.c.obj)
 .text.set_region
                0x0000000000000000       0x90 zephyr/libzephyr.a(bitarray.c.obj)
 .text.set_clear_region
                0x0000000000000000       0x46 zephyr/libzephyr.a(bitarray.c.obj)
 .text.match_region
                0x0000000000000000       0x8c zephyr/libzephyr.a(bitarray.c.obj)
 .text.is_region_set_clear
                0x0000000000000000       0x4e zephyr/libzephyr.a(bitarray.c.obj)
 .text.sys_bitarray_popcount_region
                0x0000000000000000       0x94 zephyr/libzephyr.a(bitarray.c.obj)
 .text.sys_bitarray_xor
                0x0000000000000000       0xc2 zephyr/libzephyr.a(bitarray.c.obj)
 .text.sys_bitarray_set_bit
                0x0000000000000000       0x3e zephyr/libzephyr.a(bitarray.c.obj)
 .text.sys_bitarray_clear_bit
                0x0000000000000000       0x40 zephyr/libzephyr.a(bitarray.c.obj)
 .text.sys_bitarray_test_bit
                0x0000000000000000       0x3e zephyr/libzephyr.a(bitarray.c.obj)
 .text.sys_bitarray_test_and_set_bit
                0x0000000000000000       0x4e zephyr/libzephyr.a(bitarray.c.obj)
 .text.sys_bitarray_test_and_clear_bit
                0x0000000000000000       0x50 zephyr/libzephyr.a(bitarray.c.obj)
 .text.sys_bitarray_alloc
                0x0000000000000000       0xa4 zephyr/libzephyr.a(bitarray.c.obj)
 .text.sys_bitarray_find_nth_set
                0x0000000000000000       0xba zephyr/libzephyr.a(bitarray.c.obj)
 .text.sys_bitarray_free
                0x0000000000000000       0x6c zephyr/libzephyr.a(bitarray.c.obj)
 .text.sys_bitarray_is_region_set
                0x0000000000000000        0x6 zephyr/libzephyr.a(bitarray.c.obj)
 .text.sys_bitarray_is_region_cleared
                0x0000000000000000        0x6 zephyr/libzephyr.a(bitarray.c.obj)
 .text.sys_bitarray_test_and_set_region
                0x0000000000000000       0x70 zephyr/libzephyr.a(bitarray.c.obj)
 .text.sys_bitarray_set_region
                0x0000000000000000        0x6 zephyr/libzephyr.a(bitarray.c.obj)
 .text.sys_bitarray_clear_region
                0x0000000000000000        0x6 zephyr/libzephyr.a(bitarray.c.obj)
 .debug_info    0x0000000000000000     0x2562 zephyr/libzephyr.a(bitarray.c.obj)
 .debug_abbrev  0x0000000000000000      0x476 zephyr/libzephyr.a(bitarray.c.obj)
 .debug_loc     0x0000000000000000     0x1e01 zephyr/libzephyr.a(bitarray.c.obj)
 .debug_aranges
                0x0000000000000000       0xb8 zephyr/libzephyr.a(bitarray.c.obj)
 .debug_ranges  0x0000000000000000      0x288 zephyr/libzephyr.a(bitarray.c.obj)
 .debug_line    0x0000000000000000     0x17a3 zephyr/libzephyr.a(bitarray.c.obj)
 .debug_str     0x0000000000000000      0x66f zephyr/libzephyr.a(bitarray.c.obj)
 .comment       0x0000000000000000       0x21 zephyr/libzephyr.a(bitarray.c.obj)
 .debug_frame   0x0000000000000000      0x290 zephyr/libzephyr.a(bitarray.c.obj)
 .text          0x0000000000000000        0x0 zephyr/libzephyr.a(configs.c.obj)
 .data          0x0000000000000000        0x0 zephyr/libzephyr.a(configs.c.obj)
 .bss           0x0000000000000000        0x0 zephyr/libzephyr.a(configs.c.obj)
 .text          0x0000000000000000        0x0 zephyr/libzephyr.a(stm32cube_hal.c.obj)
 .data          0x0000000000000000        0x0 zephyr/libzephyr.a(stm32cube_hal.c.obj)
 .bss           0x0000000000000000        0x0 zephyr/libzephyr.a(stm32cube_hal.c.obj)
 .text.HAL_GetTick
                0x0000000000000000       0x10 zephyr/libzephyr.a(stm32cube_hal.c.obj)
 .text.HAL_Delay
                0x0000000000000000       0x16 zephyr/libzephyr.a(stm32cube_hal.c.obj)
 .debug_info    0x0000000000000000      0x27c zephyr/libzephyr.a(stm32cube_hal.c.obj)
 .debug_abbrev  0x0000000000000000      0x1b3 zephyr/libzephyr.a(stm32cube_hal.c.obj)
 .debug_loc     0x0000000000000000       0x46 zephyr/libzephyr.a(stm32cube_hal.c.obj)
 .debug_aranges
                0x0000000000000000       0x28 zephyr/libzephyr.a(stm32cube_hal.c.obj)
 .debug_ranges  0x0000000000000000       0x98 zephyr/libzephyr.a(stm32cube_hal.c.obj)
 .debug_line    0x0000000000000000      0x276 zephyr/libzephyr.a(stm32cube_hal.c.obj)
 .debug_str     0x0000000000000000      0x36f zephyr/libzephyr.a(stm32cube_hal.c.obj)
 .comment       0x0000000000000000       0x21 zephyr/libzephyr.a(stm32cube_hal.c.obj)
 .debug_frame   0x0000000000000000       0x40 zephyr/libzephyr.a(stm32cube_hal.c.obj)
 .text          0x0000000000000000        0x0 zephyr/libzephyr.a(soc_config.c.obj)
 .data          0x0000000000000000        0x0 zephyr/libzephyr.a(soc_config.c.obj)
 .bss           0x0000000000000000        0x0 zephyr/libzephyr.a(soc_config.c.obj)
 .text          0x0000000000000000        0x0 zephyr/libzephyr.a(soc.c.obj)
 .data          0x0000000000000000        0x0 zephyr/libzephyr.a(soc.c.obj)
 .bss           0x0000000000000000        0x0 zephyr/libzephyr.a(soc.c.obj)
 .text          0x0000000000000000        0x0 zephyr/libzephyr.a(log_core.c.obj)
 .data          0x0000000000000000        0x0 zephyr/libzephyr.a(log_core.c.obj)
 .bss           0x0000000000000000        0x0 zephyr/libzephyr.a(log_core.c.obj)
 .text.log_format_table_size
                0x0000000000000000        0x4 zephyr/libzephyr.a(log_core.c.obj)
 .text.z_log_timestamp
                0x0000000000000000        0xc zephyr/libzephyr.a(log_core.c.obj)
 .text.log_format_set_all_active_backends
                0x0000000000000000       0x4c zephyr/libzephyr.a(log_core.c.obj)
 .text.log_init
                0x0000000000000000        0x8 zephyr/libzephyr.a(log_core.c.obj)
 .text.log_thread_trigger
                0x0000000000000000       0x1c zephyr/libzephyr.a(log_core.c.obj)
 .text.log_thread_set
                0x0000000000000000        0x2 zephyr/libzephyr.a(log_core.c.obj)
 .rodata.unordered_notify.str1.1
                0x0000000000000000       0x28 zephyr/libzephyr.a(log_core.c.obj)
 .text.unordered_notify
                0x0000000000000000       0x30 zephyr/libzephyr.a(log_core.c.obj)
 .text.z_impl_log_buffered_cnt
                0x0000000000000000        0xc zephyr/libzephyr.a(log_core.c.obj)
 .text.z_log_dropped_pending
                0x0000000000000000       0x14 zephyr/libzephyr.a(log_core.c.obj)
 .text.z_log_msg_claim_oldest
                0x0000000000000000       0x78 zephyr/libzephyr.a(log_core.c.obj)
 .text.z_log_msg_claim
                0x0000000000000000        0x4 zephyr/libzephyr.a(log_core.c.obj)
 .text.z_log_msg_enqueue
                0x0000000000000000       0x6c zephyr/libzephyr.a(log_core.c.obj)
 .text.log_set_tag
                0x0000000000000000        0x6 zephyr/libzephyr.a(log_core.c.obj)
 .text.log_mem_get_usage
                0x0000000000000000       0x14 zephyr/libzephyr.a(log_core.c.obj)
 .text.log_mem_get_max_usage
                0x0000000000000000        0xc zephyr/libzephyr.a(log_core.c.obj)
 .bss.unordered_cnt
                0x0000000000000000        0x4 zephyr/libzephyr.a(log_core.c.obj)
 .bss.prev_timestamp
                0x0000000000000000        0x4 zephyr/libzephyr.a(log_core.c.obj)
 .text          0x0000000000000000        0x0 zephyr/libzephyr.a(log_mgmt.c.obj)
 .data          0x0000000000000000        0x0 zephyr/libzephyr.a(log_mgmt.c.obj)
 .bss           0x0000000000000000        0x0 zephyr/libzephyr.a(log_mgmt.c.obj)
 .text.domain_id_cmp
                0x0000000000000000        0x8 zephyr/libzephyr.a(log_mgmt.c.obj)
 .text.source_id_cmp
                0x0000000000000000        0xe zephyr/libzephyr.a(log_mgmt.c.obj)
 .text.z_log_link_get_dynamic_filter
                0x0000000000000000       0x40 zephyr/libzephyr.a(log_mgmt.c.obj)
 .text.z_log_ext_domain_count
                0x0000000000000000       0x20 zephyr/libzephyr.a(log_mgmt.c.obj)
 .text.log_src_cnt_get
                0x0000000000000000       0x14 zephyr/libzephyr.a(log_mgmt.c.obj)
 .rodata.log_domain_name_get.str1.1
                0x0000000000000000        0x1 zephyr/libzephyr.a(log_mgmt.c.obj)
 .text.log_domain_name_get
                0x0000000000000000        0x8 zephyr/libzephyr.a(log_mgmt.c.obj)
 .text.log_compiled_level_get
                0x0000000000000000       0x20 zephyr/libzephyr.a(log_mgmt.c.obj)
 .text.z_log_link_set_runtime_level
                0x0000000000000000       0x40 zephyr/libzephyr.a(log_mgmt.c.obj)
 .text.z_log_runtime_filters_init
                0x0000000000000000       0x3c zephyr/libzephyr.a(log_mgmt.c.obj)
 .text.log_source_id_get
                0x0000000000000000       0x38 zephyr/libzephyr.a(log_mgmt.c.obj)
 .text.filter_set
                0x0000000000000000       0x20 zephyr/libzephyr.a(log_mgmt.c.obj)
 .text.z_impl_log_filter_set
                0x0000000000000000       0x20 zephyr/libzephyr.a(log_mgmt.c.obj)
 .text.z_impl_log_frontend_filter_set
                0x0000000000000000       0x20 zephyr/libzephyr.a(log_mgmt.c.obj)
 .text.log_backend_get_by_name
                0x0000000000000000       0x2c zephyr/libzephyr.a(log_mgmt.c.obj)
 .text.log_backend_disable
                0x0000000000000000        0x8 zephyr/libzephyr.a(log_mgmt.c.obj)
 .text.log_filter_get
                0x0000000000000000       0x20 zephyr/libzephyr.a(log_mgmt.c.obj)
 .text.log_frontend_filter_get
                0x0000000000000000        0x4 zephyr/libzephyr.a(log_mgmt.c.obj)
 .text.z_log_links_initiate
                0x0000000000000000       0x4c zephyr/libzephyr.a(log_mgmt.c.obj)
 .rodata.sname_cache_config.0
                0x0000000000000000       0x10 zephyr/libzephyr.a(log_mgmt.c.obj)
 .rodata.dname_cache_config.1
                0x0000000000000000       0x10 zephyr/libzephyr.a(log_mgmt.c.obj)
 .bss.sname_cache
                0x0000000000000000       0x20 zephyr/libzephyr.a(log_mgmt.c.obj)
 .bss.dname_cache
                0x0000000000000000       0x20 zephyr/libzephyr.a(log_mgmt.c.obj)
 .bss.sname_cache_buffer
                0x0000000000000000        0x9 zephyr/libzephyr.a(log_mgmt.c.obj)
 .bss.dname_cache_buffer
                0x0000000000000000        0x9 zephyr/libzephyr.a(log_mgmt.c.obj)
 .text          0x0000000000000000        0x0 zephyr/libzephyr.a(log_cache.c.obj)
 .data          0x0000000000000000        0x0 zephyr/libzephyr.a(log_cache.c.obj)
 .bss           0x0000000000000000        0x0 zephyr/libzephyr.a(log_cache.c.obj)
 .text.log_cache_init
                0x0000000000000000       0x54 zephyr/libzephyr.a(log_cache.c.obj)
 .text.log_cache_get
                0x0000000000000000       0xa8 zephyr/libzephyr.a(log_cache.c.obj)
 .text.log_cache_put
                0x0000000000000000       0x14 zephyr/libzephyr.a(log_cache.c.obj)
 .text.log_cache_release
                0x0000000000000000       0x14 zephyr/libzephyr.a(log_cache.c.obj)
 .debug_info    0x0000000000000000     0x10ac zephyr/libzephyr.a(log_cache.c.obj)
 .debug_abbrev  0x0000000000000000      0x2d5 zephyr/libzephyr.a(log_cache.c.obj)
 .debug_loc     0x0000000000000000      0xa61 zephyr/libzephyr.a(log_cache.c.obj)
 .debug_aranges
                0x0000000000000000       0x38 zephyr/libzephyr.a(log_cache.c.obj)
 .debug_ranges  0x0000000000000000      0x280 zephyr/libzephyr.a(log_cache.c.obj)
 .debug_line    0x0000000000000000      0x7f3 zephyr/libzephyr.a(log_cache.c.obj)
 .debug_str     0x0000000000000000      0x4f1 zephyr/libzephyr.a(log_cache.c.obj)
 .comment       0x0000000000000000       0x21 zephyr/libzephyr.a(log_cache.c.obj)
 .debug_frame   0x0000000000000000       0x70 zephyr/libzephyr.a(log_cache.c.obj)
 .text          0x0000000000000000        0x0 zephyr/libzephyr.a(log_msg.c.obj)
 .data          0x0000000000000000        0x0 zephyr/libzephyr.a(log_msg.c.obj)
 .bss           0x0000000000000000        0x0 zephyr/libzephyr.a(log_msg.c.obj)
 .text.z_impl_z_log_msg_simple_create_2
                0x0000000000000000       0x18 zephyr/libzephyr.a(log_msg.c.obj)
 .text          0x0000000000000000        0x0 zephyr/libzephyr.a(log_output.c.obj)
 .data          0x0000000000000000        0x0 zephyr/libzephyr.a(log_output.c.obj)
 .bss           0x0000000000000000        0x0 zephyr/libzephyr.a(log_output.c.obj)
 .text.log_output_timestamp_to_us
                0x0000000000000000       0x28 zephyr/libzephyr.a(log_output.c.obj)
 .text          0x0000000000000000        0x0 zephyr/libzephyr.a(log_backend_uart.c.obj)
 .data          0x0000000000000000        0x0 zephyr/libzephyr.a(log_backend_uart.c.obj)
 .bss           0x0000000000000000        0x0 zephyr/libzephyr.a(log_backend_uart.c.obj)
 .text          0x0000000000000000        0x0 zephyr/libzephyr.a(tracing_none.c.obj)
 .data          0x0000000000000000        0x0 zephyr/libzephyr.a(tracing_none.c.obj)
 .bss           0x0000000000000000        0x0 zephyr/libzephyr.a(tracing_none.c.obj)
 .text.sys_trace_isr_enter
                0x0000000000000000        0x2 zephyr/libzephyr.a(tracing_none.c.obj)
 .text.sys_trace_isr_exit
                0x0000000000000000        0x2 zephyr/libzephyr.a(tracing_none.c.obj)
 .text.sys_trace_isr_exit_to_scheduler
                0x0000000000000000        0x2 zephyr/libzephyr.a(tracing_none.c.obj)
 .text.sys_trace_idle
                0x0000000000000000        0x2 zephyr/libzephyr.a(tracing_none.c.obj)
 .debug_info    0x0000000000000000       0x56 zephyr/libzephyr.a(tracing_none.c.obj)
 .debug_abbrev  0x0000000000000000       0x48 zephyr/libzephyr.a(tracing_none.c.obj)
 .debug_aranges
                0x0000000000000000       0x38 zephyr/libzephyr.a(tracing_none.c.obj)
 .debug_ranges  0x0000000000000000       0x28 zephyr/libzephyr.a(tracing_none.c.obj)
 .debug_line    0x0000000000000000       0xa5 zephyr/libzephyr.a(tracing_none.c.obj)
 .debug_str     0x0000000000000000      0x225 zephyr/libzephyr.a(tracing_none.c.obj)
 .comment       0x0000000000000000       0x21 zephyr/libzephyr.a(tracing_none.c.obj)
 .debug_frame   0x0000000000000000       0x50 zephyr/libzephyr.a(tracing_none.c.obj)
 .text          0x0000000000000000        0x0 zephyr/arch/common/libarch__common.a(sw_isr_common.c.obj)
 .data          0x0000000000000000        0x0 zephyr/arch/common/libarch__common.a(sw_isr_common.c.obj)
 .bss           0x0000000000000000        0x0 zephyr/arch/common/libarch__common.a(sw_isr_common.c.obj)
 .text.z_get_sw_isr_table_idx
                0x0000000000000000        0x2 zephyr/arch/common/libarch__common.a(sw_isr_common.c.obj)
 .debug_info    0x0000000000000000       0xba zephyr/arch/common/libarch__common.a(sw_isr_common.c.obj)
 .debug_abbrev  0x0000000000000000       0x6b zephyr/arch/common/libarch__common.a(sw_isr_common.c.obj)
 .debug_loc     0x0000000000000000       0x15 zephyr/arch/common/libarch__common.a(sw_isr_common.c.obj)
 .debug_aranges
                0x0000000000000000       0x20 zephyr/arch/common/libarch__common.a(sw_isr_common.c.obj)
 .debug_ranges  0x0000000000000000       0x10 zephyr/arch/common/libarch__common.a(sw_isr_common.c.obj)
 .debug_line    0x0000000000000000       0x7d zephyr/arch/common/libarch__common.a(sw_isr_common.c.obj)
 .debug_str     0x0000000000000000      0x289 zephyr/arch/common/libarch__common.a(sw_isr_common.c.obj)
 .comment       0x0000000000000000       0x21 zephyr/arch/common/libarch__common.a(sw_isr_common.c.obj)
 .debug_frame   0x0000000000000000       0x20 zephyr/arch/common/libarch__common.a(sw_isr_common.c.obj)
 .text          0x0000000000000000        0x0 zephyr/arch/arch/arm/core/libarch__arm__core.a(fatal.c.obj)
 .data          0x0000000000000000        0x0 zephyr/arch/arch/arm/core/libarch__arm__core.a(fatal.c.obj)
 .bss           0x0000000000000000        0x0 zephyr/arch/arch/arm/core/libarch__arm__core.a(fatal.c.obj)
 .text.arch_syscall_oops
                0x0000000000000000       0x1c zephyr/arch/arch/arm/core/libarch__arm__core.a(fatal.c.obj)
 .text          0x0000000000000000        0x0 zephyr/arch/arch/arm/core/libarch__arm__core.a(nmi.c.obj)
 .data          0x0000000000000000        0x0 zephyr/arch/arch/arm/core/libarch__arm__core.a(nmi.c.obj)
 .bss           0x0000000000000000        0x0 zephyr/arch/arch/arm/core/libarch__arm__core.a(nmi.c.obj)
 .text.z_arm_nmi_set_handler
                0x0000000000000000        0xc zephyr/arch/arch/arm/core/libarch__arm__core.a(nmi.c.obj)
 .text          0x0000000000000000        0x0 zephyr/arch/arch/arm/core/libarch__arm__core.a(nmi_on_reset.S.obj)
 .data          0x0000000000000000        0x0 zephyr/arch/arch/arm/core/libarch__arm__core.a(nmi_on_reset.S.obj)
 .bss           0x0000000000000000        0x0 zephyr/arch/arch/arm/core/libarch__arm__core.a(nmi_on_reset.S.obj)
 .text          0x0000000000000000        0x0 zephyr/arch/arch/arm/core/libarch__arm__core.a(tls.c.obj)
 .data          0x0000000000000000        0x0 zephyr/arch/arch/arm/core/libarch__arm__core.a(tls.c.obj)
 .bss           0x0000000000000000        0x0 zephyr/arch/arch/arm/core/libarch__arm__core.a(tls.c.obj)
 .text          0x0000000000000000        0x0 zephyr/arch/arch/arm/core/cortex_m/libarch__arm__core__cortex_m.a(exc_exit.c.obj)
 .data          0x0000000000000000        0x0 zephyr/arch/arch/arm/core/cortex_m/libarch__arm__core__cortex_m.a(exc_exit.c.obj)
 .bss           0x0000000000000000        0x0 zephyr/arch/arch/arm/core/cortex_m/libarch__arm__core__cortex_m.a(exc_exit.c.obj)
 .text          0x0000000000000000        0x0 zephyr/arch/arch/arm/core/cortex_m/libarch__arm__core__cortex_m.a(fault.c.obj)
 .data          0x0000000000000000        0x0 zephyr/arch/arch/arm/core/cortex_m/libarch__arm__core__cortex_m.a(fault.c.obj)
 .bss           0x0000000000000000        0x0 zephyr/arch/arch/arm/core/cortex_m/libarch__arm__core__cortex_m.a(fault.c.obj)
 .text          0x0000000000000000        0x0 zephyr/arch/arch/arm/core/cortex_m/libarch__arm__core__cortex_m.a(fault_s.S.obj)
 .data          0x0000000000000000        0x0 zephyr/arch/arch/arm/core/cortex_m/libarch__arm__core__cortex_m.a(fault_s.S.obj)
 .bss           0x0000000000000000        0x0 zephyr/arch/arch/arm/core/cortex_m/libarch__arm__core__cortex_m.a(fault_s.S.obj)
 .text          0x0000000000000000        0x0 zephyr/arch/arch/arm/core/cortex_m/libarch__arm__core__cortex_m.a(fpu.c.obj)
 .data          0x0000000000000000        0x0 zephyr/arch/arch/arm/core/cortex_m/libarch__arm__core__cortex_m.a(fpu.c.obj)
 .bss           0x0000000000000000        0x0 zephyr/arch/arch/arm/core/cortex_m/libarch__arm__core__cortex_m.a(fpu.c.obj)
 .text.z_arm_save_fp_context
                0x0000000000000000        0x2 zephyr/arch/arch/arm/core/cortex_m/libarch__arm__core__cortex_m.a(fpu.c.obj)
 .text.z_arm_restore_fp_context
                0x0000000000000000        0x2 zephyr/arch/arch/arm/core/cortex_m/libarch__arm__core__cortex_m.a(fpu.c.obj)
 .debug_info    0x0000000000000000      0x146 zephyr/arch/arch/arm/core/cortex_m/libarch__arm__core__cortex_m.a(fpu.c.obj)
 .debug_abbrev  0x0000000000000000       0xcd zephyr/arch/arch/arm/core/cortex_m/libarch__arm__core__cortex_m.a(fpu.c.obj)
 .debug_aranges
                0x0000000000000000       0x28 zephyr/arch/arch/arm/core/cortex_m/libarch__arm__core__cortex_m.a(fpu.c.obj)
 .debug_ranges  0x0000000000000000       0x18 zephyr/arch/arch/arm/core/cortex_m/libarch__arm__core__cortex_m.a(fpu.c.obj)
 .debug_line    0x0000000000000000      0x17d zephyr/arch/arch/arm/core/cortex_m/libarch__arm__core__cortex_m.a(fpu.c.obj)
 .debug_str     0x0000000000000000      0x2ea zephyr/arch/arch/arm/core/cortex_m/libarch__arm__core__cortex_m.a(fpu.c.obj)
 .comment       0x0000000000000000       0x21 zephyr/arch/arch/arm/core/cortex_m/libarch__arm__core__cortex_m.a(fpu.c.obj)
 .debug_frame   0x0000000000000000       0x30 zephyr/arch/arch/arm/core/cortex_m/libarch__arm__core__cortex_m.a(fpu.c.obj)
 .text          0x0000000000000000        0x0 zephyr/arch/arch/arm/core/cortex_m/libarch__arm__core__cortex_m.a(reset.S.obj)
 .data          0x0000000000000000        0x0 zephyr/arch/arch/arm/core/cortex_m/libarch__arm__core__cortex_m.a(reset.S.obj)
 .bss           0x0000000000000000        0x0 zephyr/arch/arch/arm/core/cortex_m/libarch__arm__core__cortex_m.a(reset.S.obj)
 .text          0x0000000000000000        0x0 zephyr/arch/arch/arm/core/cortex_m/libarch__arm__core__cortex_m.a(scb.c.obj)
 .data          0x0000000000000000        0x0 zephyr/arch/arch/arm/core/cortex_m/libarch__arm__core__cortex_m.a(scb.c.obj)
 .bss           0x0000000000000000        0x0 zephyr/arch/arch/arm/core/cortex_m/libarch__arm__core__cortex_m.a(scb.c.obj)
 .text.sys_arch_reboot
                0x0000000000000000       0x24 zephyr/arch/arch/arm/core/cortex_m/libarch__arm__core__cortex_m.a(scb.c.obj)
 .debug_info    0x0000000000000000      0x2ec zephyr/arch/arch/arm/core/cortex_m/libarch__arm__core__cortex_m.a(scb.c.obj)
 .debug_abbrev  0x0000000000000000      0x117 zephyr/arch/arch/arm/core/cortex_m/libarch__arm__core__cortex_m.a(scb.c.obj)
 .debug_aranges
                0x0000000000000000       0x20 zephyr/arch/arch/arm/core/cortex_m/libarch__arm__core__cortex_m.a(scb.c.obj)
 .debug_ranges  0x0000000000000000       0x10 zephyr/arch/arch/arm/core/cortex_m/libarch__arm__core__cortex_m.a(scb.c.obj)
 .debug_line    0x0000000000000000      0x1c8 zephyr/arch/arch/arm/core/cortex_m/libarch__arm__core__cortex_m.a(scb.c.obj)
 .debug_str     0x0000000000000000      0x31b zephyr/arch/arch/arm/core/cortex_m/libarch__arm__core__cortex_m.a(scb.c.obj)
 .comment       0x0000000000000000       0x21 zephyr/arch/arch/arm/core/cortex_m/libarch__arm__core__cortex_m.a(scb.c.obj)
 .debug_frame   0x0000000000000000       0x20 zephyr/arch/arch/arm/core/cortex_m/libarch__arm__core__cortex_m.a(scb.c.obj)
 .text          0x0000000000000000        0x0 zephyr/arch/arch/arm/core/cortex_m/libarch__arm__core__cortex_m.a(thread_abort.c.obj)
 .data          0x0000000000000000        0x0 zephyr/arch/arch/arm/core/cortex_m/libarch__arm__core__cortex_m.a(thread_abort.c.obj)
 .bss           0x0000000000000000        0x0 zephyr/arch/arch/arm/core/cortex_m/libarch__arm__core__cortex_m.a(thread_abort.c.obj)
 .text          0x0000000000000000        0x0 zephyr/arch/arch/arm/core/cortex_m/libarch__arm__core__cortex_m.a(vector_table.S.obj)
 .data          0x0000000000000000        0x0 zephyr/arch/arch/arm/core/cortex_m/libarch__arm__core__cortex_m.a(vector_table.S.obj)
 .bss           0x0000000000000000        0x0 zephyr/arch/arch/arm/core/cortex_m/libarch__arm__core__cortex_m.a(vector_table.S.obj)
 .text          0x0000000000000000        0x0 zephyr/arch/arch/arm/core/cortex_m/libarch__arm__core__cortex_m.a(swap.c.obj)
 .data          0x0000000000000000        0x0 zephyr/arch/arch/arm/core/cortex_m/libarch__arm__core__cortex_m.a(swap.c.obj)
 .bss           0x0000000000000000        0x0 zephyr/arch/arch/arm/core/cortex_m/libarch__arm__core__cortex_m.a(swap.c.obj)
 .text          0x0000000000000000        0x0 zephyr/arch/arch/arm/core/cortex_m/libarch__arm__core__cortex_m.a(swap_helper.S.obj)
 .data          0x0000000000000000        0x0 zephyr/arch/arch/arm/core/cortex_m/libarch__arm__core__cortex_m.a(swap_helper.S.obj)
 .bss           0x0000000000000000        0x0 zephyr/arch/arch/arm/core/cortex_m/libarch__arm__core__cortex_m.a(swap_helper.S.obj)
 .text          0x0000000000000000        0x0 zephyr/arch/arch/arm/core/cortex_m/libarch__arm__core__cortex_m.a(irq_manage.c.obj)
 .data          0x0000000000000000        0x0 zephyr/arch/arch/arm/core/cortex_m/libarch__arm__core__cortex_m.a(irq_manage.c.obj)
 .bss           0x0000000000000000        0x0 zephyr/arch/arch/arm/core/cortex_m/libarch__arm__core__cortex_m.a(irq_manage.c.obj)
 .text.arch_irq_disable
                0x0000000000000000       0x28 zephyr/arch/arch/arm/core/cortex_m/libarch__arm__core__cortex_m.a(irq_manage.c.obj)
 .text.arch_irq_is_enabled
                0x0000000000000000       0x1c zephyr/arch/arch/arm/core/cortex_m/libarch__arm__core__cortex_m.a(irq_manage.c.obj)
 .text          0x0000000000000000        0x0 zephyr/arch/arch/arm/core/cortex_m/libarch__arm__core__cortex_m.a(prep_c.c.obj)
 .data          0x0000000000000000        0x0 zephyr/arch/arch/arm/core/cortex_m/libarch__arm__core__cortex_m.a(prep_c.c.obj)
 .bss           0x0000000000000000        0x0 zephyr/arch/arch/arm/core/cortex_m/libarch__arm__core__cortex_m.a(prep_c.c.obj)
 .text          0x0000000000000000        0x0 zephyr/arch/arch/arm/core/cortex_m/libarch__arm__core__cortex_m.a(thread.c.obj)
 .data          0x0000000000000000        0x0 zephyr/arch/arch/arm/core/cortex_m/libarch__arm__core__cortex_m.a(thread.c.obj)
 .bss           0x0000000000000000        0x0 zephyr/arch/arch/arm/core/cortex_m/libarch__arm__core__cortex_m.a(thread.c.obj)
 .text.arch_irq_lock_outlined
                0x0000000000000000       0x10 zephyr/arch/arch/arm/core/cortex_m/libarch__arm__core__cortex_m.a(thread.c.obj)
 .text          0x0000000000000000        0x0 zephyr/arch/arch/arm/core/cortex_m/libarch__arm__core__cortex_m.a(cpu_idle.c.obj)
 .data          0x0000000000000000        0x0 zephyr/arch/arch/arm/core/cortex_m/libarch__arm__core__cortex_m.a(cpu_idle.c.obj)
 .bss           0x0000000000000000        0x0 zephyr/arch/arch/arm/core/cortex_m/libarch__arm__core__cortex_m.a(cpu_idle.c.obj)
 .text.arch_cpu_atomic_idle
                0x0000000000000000       0x1e zephyr/arch/arch/arm/core/cortex_m/libarch__arm__core__cortex_m.a(cpu_idle.c.obj)
 .text          0x0000000000000000        0x0 zephyr/arch/arch/arm/core/cortex_m/libarch__arm__core__cortex_m.a(irq_init.c.obj)
 .data          0x0000000000000000        0x0 zephyr/arch/arch/arm/core/cortex_m/libarch__arm__core__cortex_m.a(irq_init.c.obj)
 .bss           0x0000000000000000        0x0 zephyr/arch/arch/arm/core/cortex_m/libarch__arm__core__cortex_m.a(irq_init.c.obj)
 .text          0x0000000000000000        0x0 zephyr/arch/arch/arm/core/cortex_m/libarch__arm__core__cortex_m.a(isr_wrapper.c.obj)
 .data          0x0000000000000000        0x0 zephyr/arch/arch/arm/core/cortex_m/libarch__arm__core__cortex_m.a(isr_wrapper.c.obj)
 .bss           0x0000000000000000        0x0 zephyr/arch/arch/arm/core/cortex_m/libarch__arm__core__cortex_m.a(isr_wrapper.c.obj)
 .text          0x0000000000000000        0x0 zephyr/arch/arch/arm/core/cortex_m/libarch__arm__core__cortex_m.a(__aeabi_read_tp.S.obj)
 .data          0x0000000000000000        0x0 zephyr/arch/arch/arm/core/cortex_m/libarch__arm__core__cortex_m.a(__aeabi_read_tp.S.obj)
 .bss           0x0000000000000000        0x0 zephyr/arch/arch/arm/core/cortex_m/libarch__arm__core__cortex_m.a(__aeabi_read_tp.S.obj)
 .text          0x0000000000000000        0x0 zephyr/lib/libc/picolibc/liblib__libc__picolibc.a(libc-hooks.c.obj)
 .data          0x0000000000000000        0x0 zephyr/lib/libc/picolibc/liblib__libc__picolibc.a(libc-hooks.c.obj)
 .bss           0x0000000000000000        0x0 zephyr/lib/libc/picolibc/liblib__libc__picolibc.a(libc-hooks.c.obj)
 .text.__stdin_hook_install
                0x0000000000000000       0x14 zephyr/lib/libc/picolibc/liblib__libc__picolibc.a(libc-hooks.c.obj)
 .rodata._exit.str1.1
                0x0000000000000000        0x6 zephyr/lib/libc/picolibc/liblib__libc__picolibc.a(libc-hooks.c.obj)
 .text._exit    0x0000000000000000       0x10 zephyr/lib/libc/picolibc/liblib__libc__picolibc.a(libc-hooks.c.obj)
 .text.__retarget_lock_init_recursive
                0x0000000000000000       0x14 zephyr/lib/libc/picolibc/liblib__libc__picolibc.a(libc-hooks.c.obj)
 .text.__retarget_lock_init
                0x0000000000000000        0x4 zephyr/lib/libc/picolibc/liblib__libc__picolibc.a(libc-hooks.c.obj)
 .text.__retarget_lock_close_recursive
                0x0000000000000000        0x4 zephyr/lib/libc/picolibc/liblib__libc__picolibc.a(libc-hooks.c.obj)
 .text.__retarget_lock_close
                0x0000000000000000        0x4 zephyr/lib/libc/picolibc/liblib__libc__picolibc.a(libc-hooks.c.obj)
 .text.__retarget_lock_acquire_recursive
                0x0000000000000000        0xc zephyr/lib/libc/picolibc/liblib__libc__picolibc.a(libc-hooks.c.obj)
 .text.__retarget_lock_acquire
                0x0000000000000000        0x4 zephyr/lib/libc/picolibc/liblib__libc__picolibc.a(libc-hooks.c.obj)
 .text.__retarget_lock_try_acquire_recursive
                0x0000000000000000       0x12 zephyr/lib/libc/picolibc/liblib__libc__picolibc.a(libc-hooks.c.obj)
 .text.__retarget_lock_try_acquire
                0x0000000000000000        0x4 zephyr/lib/libc/picolibc/liblib__libc__picolibc.a(libc-hooks.c.obj)
 .text.__retarget_lock_release_recursive
                0x0000000000000000        0x4 zephyr/lib/libc/picolibc/liblib__libc__picolibc.a(libc-hooks.c.obj)
 .text.__retarget_lock_release
                0x0000000000000000        0x4 zephyr/lib/libc/picolibc/liblib__libc__picolibc.a(libc-hooks.c.obj)
 .text.__assert_no_args
                0x0000000000000000        0x0 zephyr/lib/libc/picolibc/liblib__libc__picolibc.a(libc-hooks.c.obj)
 .rodata.__chk_fail.str1.1
                0x0000000000000000       0x1e zephyr/lib/libc/picolibc/liblib__libc__picolibc.a(libc-hooks.c.obj)
 .text.__chk_fail
                0x0000000000000000       0x1c zephyr/lib/libc/picolibc/liblib__libc__picolibc.a(libc-hooks.c.obj)
 ._k_mutex.static.__lock___libc_recursive_mutex_
                0x0000000000000000       0x14 zephyr/lib/libc/picolibc/liblib__libc__picolibc.a(libc-hooks.c.obj)
 .rodata.stdout
                0x0000000000000000        0x4 zephyr/lib/libc/picolibc/liblib__libc__picolibc.a(libc-hooks.c.obj)
 .rodata.stdin  0x0000000000000000        0x4 zephyr/lib/libc/picolibc/liblib__libc__picolibc.a(libc-hooks.c.obj)
 .bss.__stdin   0x0000000000000000       0x10 zephyr/lib/libc/picolibc/liblib__libc__picolibc.a(libc-hooks.c.obj)
 .text          0x0000000000000000        0x0 zephyr/lib/libc/common/liblib__libc__common.a(abort.c.obj)
 .data          0x0000000000000000        0x0 zephyr/lib/libc/common/liblib__libc__common.a(abort.c.obj)
 .bss           0x0000000000000000        0x0 zephyr/lib/libc/common/liblib__libc__common.a(abort.c.obj)
 .rodata.abort.str1.1
                0x0000000000000000        0x9 zephyr/lib/libc/common/liblib__libc__common.a(abort.c.obj)
 .text.abort    0x0000000000000000       0x1c zephyr/lib/libc/common/liblib__libc__common.a(abort.c.obj)
 .debug_info    0x0000000000000000      0x1bb zephyr/lib/libc/common/liblib__libc__common.a(abort.c.obj)
 .debug_abbrev  0x0000000000000000      0x14d zephyr/lib/libc/common/liblib__libc__common.a(abort.c.obj)
 .debug_loc     0x0000000000000000       0x2c zephyr/lib/libc/common/liblib__libc__common.a(abort.c.obj)
 .debug_aranges
                0x0000000000000000       0x20 zephyr/lib/libc/common/liblib__libc__common.a(abort.c.obj)
 .debug_ranges  0x0000000000000000       0x10 zephyr/lib/libc/common/liblib__libc__common.a(abort.c.obj)
 .debug_line    0x0000000000000000      0x2da zephyr/lib/libc/common/liblib__libc__common.a(abort.c.obj)
 .debug_str     0x0000000000000000      0x35a zephyr/lib/libc/common/liblib__libc__common.a(abort.c.obj)
 .comment       0x0000000000000000       0x21 zephyr/lib/libc/common/liblib__libc__common.a(abort.c.obj)
 .debug_frame   0x0000000000000000       0x28 zephyr/lib/libc/common/liblib__libc__common.a(abort.c.obj)
 .text          0x0000000000000000        0x0 zephyr/lib/libc/common/liblib__libc__common.a(malloc.c.obj)
 .data          0x0000000000000000        0x0 zephyr/lib/libc/common/liblib__libc__common.a(malloc.c.obj)
 .bss           0x0000000000000000        0x0 zephyr/lib/libc/common/liblib__libc__common.a(malloc.c.obj)
 .text.malloc_lock
                0x0000000000000000       0x14 zephyr/lib/libc/common/liblib__libc__common.a(malloc.c.obj)
 .text.malloc_unlock
                0x0000000000000000        0xc zephyr/lib/libc/common/liblib__libc__common.a(malloc.c.obj)
 .text.malloc   0x0000000000000000       0x34 zephyr/lib/libc/common/liblib__libc__common.a(malloc.c.obj)
 .text.aligned_alloc
                0x0000000000000000       0x34 zephyr/lib/libc/common/liblib__libc__common.a(malloc.c.obj)
 .text.realloc  0x0000000000000000       0x38 zephyr/lib/libc/common/liblib__libc__common.a(malloc.c.obj)
 .text.free     0x0000000000000000       0x1c zephyr/lib/libc/common/liblib__libc__common.a(malloc.c.obj)
 .text.calloc   0x0000000000000000       0x34 zephyr/lib/libc/common/liblib__libc__common.a(malloc.c.obj)
 .text.reallocarray
                0x0000000000000000       0x24 zephyr/lib/libc/common/liblib__libc__common.a(malloc.c.obj)
 .data.z_malloc_heap_mutex
                0x0000000000000000       0x14 zephyr/lib/libc/common/liblib__libc__common.a(malloc.c.obj)
 .text          0x0000000000000000        0x0 zephyr/drivers/interrupt_controller/libdrivers__interrupt_controller.a(intc_exti_stm32.c.obj)
 .data          0x0000000000000000        0x0 zephyr/drivers/interrupt_controller/libdrivers__interrupt_controller.a(intc_exti_stm32.c.obj)
 .bss           0x0000000000000000        0x0 zephyr/drivers/interrupt_controller/libdrivers__interrupt_controller.a(intc_exti_stm32.c.obj)
 .text          0x0000000000000000        0x0 zephyr/drivers/clock_control/libdrivers__clock_control.a(clock_stm32_ll_common.c.obj)
 .data          0x0000000000000000        0x0 zephyr/drivers/clock_control/libdrivers__clock_control.a(clock_stm32_ll_common.c.obj)
 .bss           0x0000000000000000        0x0 zephyr/drivers/clock_control/libdrivers__clock_control.a(clock_stm32_ll_common.c.obj)
 .text.stm32_hse_css_callback
                0x0000000000000000        0x2 zephyr/drivers/clock_control/libdrivers__clock_control.a(clock_stm32_ll_common.c.obj)
 .text.HAL_RCC_CSSCallback
                0x0000000000000000        0x8 zephyr/drivers/clock_control/libdrivers__clock_control.a(clock_stm32_ll_common.c.obj)
 .text          0x0000000000000000        0x0 zephyr/drivers/clock_control/libdrivers__clock_control.a(clock_stm32f1.c.obj)
 .data          0x0000000000000000        0x0 zephyr/drivers/clock_control/libdrivers__clock_control.a(clock_stm32f1.c.obj)
 .bss           0x0000000000000000        0x0 zephyr/drivers/clock_control/libdrivers__clock_control.a(clock_stm32f1.c.obj)
 .text          0x0000000000000000        0x0 zephyr/drivers/console/libdrivers__console.a(uart_console.c.obj)
 .data          0x0000000000000000        0x0 zephyr/drivers/console/libdrivers__console.a(uart_console.c.obj)
 .bss           0x0000000000000000        0x0 zephyr/drivers/console/libdrivers__console.a(uart_console.c.obj)
 .text.uart_register_input
                0x0000000000000000        0x2 zephyr/drivers/console/libdrivers__console.a(uart_console.c.obj)
 .text          0x0000000000000000        0x0 zephyr/drivers/gpio/libdrivers__gpio.a(gpio_stm32.c.obj)
 .data          0x0000000000000000        0x0 zephyr/drivers/gpio/libdrivers__gpio.a(gpio_stm32.c.obj)
 .bss           0x0000000000000000        0x0 zephyr/drivers/gpio/libdrivers__gpio.a(gpio_stm32.c.obj)
 .text          0x0000000000000000        0x0 zephyr/drivers/i2c/libdrivers__i2c.a(i2c_common.c.obj)
 .data          0x0000000000000000        0x0 zephyr/drivers/i2c/libdrivers__i2c.a(i2c_common.c.obj)
 .bss           0x0000000000000000        0x0 zephyr/drivers/i2c/libdrivers__i2c.a(i2c_common.c.obj)
 .text.i2c_dump_msgs_rw
                0x0000000000000000        0x2 zephyr/drivers/i2c/libdrivers__i2c.a(i2c_common.c.obj)
 .text          0x0000000000000000        0x0 zephyr/drivers/i2c/libdrivers__i2c.a(i2c_ll_stm32_v1.c.obj)
 .data          0x0000000000000000        0x0 zephyr/drivers/i2c/libdrivers__i2c.a(i2c_ll_stm32_v1.c.obj)
 .bss           0x0000000000000000        0x0 zephyr/drivers/i2c/libdrivers__i2c.a(i2c_ll_stm32_v1.c.obj)
 .text          0x0000000000000000        0x0 zephyr/drivers/i2c/libdrivers__i2c.a(i2c_ll_stm32.c.obj)
 .data          0x0000000000000000        0x0 zephyr/drivers/i2c/libdrivers__i2c.a(i2c_ll_stm32.c.obj)
 .bss           0x0000000000000000        0x0 zephyr/drivers/i2c/libdrivers__i2c.a(i2c_ll_stm32.c.obj)
 .text          0x0000000000000000        0x0 zephyr/drivers/pinctrl/libdrivers__pinctrl.a(common.c.obj)
 .data          0x0000000000000000        0x0 zephyr/drivers/pinctrl/libdrivers__pinctrl.a(common.c.obj)
 .bss           0x0000000000000000        0x0 zephyr/drivers/pinctrl/libdrivers__pinctrl.a(common.c.obj)
 .text          0x0000000000000000        0x0 zephyr/drivers/pinctrl/libdrivers__pinctrl.a(pinctrl_stm32.c.obj)
 .data          0x0000000000000000        0x0 zephyr/drivers/pinctrl/libdrivers__pinctrl.a(pinctrl_stm32.c.obj)
 .bss           0x0000000000000000        0x0 zephyr/drivers/pinctrl/libdrivers__pinctrl.a(pinctrl_stm32.c.obj)
 .text          0x0000000000000000        0x0 zephyr/drivers/reset/libdrivers__reset.a(reset_stm32.c.obj)
 .data          0x0000000000000000        0x0 zephyr/drivers/reset/libdrivers__reset.a(reset_stm32.c.obj)
 .bss           0x0000000000000000        0x0 zephyr/drivers/reset/libdrivers__reset.a(reset_stm32.c.obj)
 .text          0x0000000000000000        0x0 zephyr/drivers/serial/libdrivers__serial.a(uart_stm32.c.obj)
 .data          0x0000000000000000        0x0 zephyr/drivers/serial/libdrivers__serial.a(uart_stm32.c.obj)
 .bss           0x0000000000000000        0x0 zephyr/drivers/serial/libdrivers__serial.a(uart_stm32.c.obj)
 .text          0x0000000000000000        0x0 zephyr/drivers/timer/libdrivers__timer.a(sys_clock_init.c.obj)
 .data          0x0000000000000000        0x0 zephyr/drivers/timer/libdrivers__timer.a(sys_clock_init.c.obj)
 .bss           0x0000000000000000        0x0 zephyr/drivers/timer/libdrivers__timer.a(sys_clock_init.c.obj)
 .text.sys_clock_set_timeout
                0x0000000000000000        0x2 zephyr/drivers/timer/libdrivers__timer.a(sys_clock_init.c.obj)
 .text.sys_clock_idle_exit
                0x0000000000000000        0x2 zephyr/drivers/timer/libdrivers__timer.a(sys_clock_init.c.obj)
 .debug_info    0x0000000000000000       0xda zephyr/drivers/timer/libdrivers__timer.a(sys_clock_init.c.obj)
 .debug_abbrev  0x0000000000000000       0x7e zephyr/drivers/timer/libdrivers__timer.a(sys_clock_init.c.obj)
 .debug_aranges
                0x0000000000000000       0x28 zephyr/drivers/timer/libdrivers__timer.a(sys_clock_init.c.obj)
 .debug_ranges  0x0000000000000000       0x18 zephyr/drivers/timer/libdrivers__timer.a(sys_clock_init.c.obj)
 .debug_line    0x0000000000000000      0x132 zephyr/drivers/timer/libdrivers__timer.a(sys_clock_init.c.obj)
 .debug_str     0x0000000000000000      0x2b2 zephyr/drivers/timer/libdrivers__timer.a(sys_clock_init.c.obj)
 .comment       0x0000000000000000       0x21 zephyr/drivers/timer/libdrivers__timer.a(sys_clock_init.c.obj)
 .debug_frame   0x0000000000000000       0x30 zephyr/drivers/timer/libdrivers__timer.a(sys_clock_init.c.obj)
 .text          0x0000000000000000        0x0 zephyr/drivers/timer/libdrivers__timer.a(cortex_m_systick.c.obj)
 .data          0x0000000000000000        0x0 zephyr/drivers/timer/libdrivers__timer.a(cortex_m_systick.c.obj)
 .bss           0x0000000000000000        0x0 zephyr/drivers/timer/libdrivers__timer.a(cortex_m_systick.c.obj)
 .text.sys_clock_cycle_get_32
                0x0000000000000000       0x28 zephyr/drivers/timer/libdrivers__timer.a(cortex_m_systick.c.obj)
 .text.sys_clock_cycle_get_64
                0x0000000000000000       0x30 zephyr/drivers/timer/libdrivers__timer.a(cortex_m_systick.c.obj)
 .text.sys_clock_idle_exit
                0x0000000000000000       0x1c zephyr/drivers/timer/libdrivers__timer.a(cortex_m_systick.c.obj)
 .text.sys_clock_disable
                0x0000000000000000        0xe zephyr/drivers/timer/libdrivers__timer.a(cortex_m_systick.c.obj)
 .text          0x0000000000000000        0x0 modules/stm32/stm32cube/lib..__modules__hal__stm32__stm32cube.a(system_stm32f1xx.c.obj)
 .data          0x0000000000000000        0x0 modules/stm32/stm32cube/lib..__modules__hal__stm32__stm32cube.a(system_stm32f1xx.c.obj)
 .bss           0x0000000000000000        0x0 modules/stm32/stm32cube/lib..__modules__hal__stm32__stm32cube.a(system_stm32f1xx.c.obj)
 .text.SystemInit
                0x0000000000000000        0x2 modules/stm32/stm32cube/lib..__modules__hal__stm32__stm32cube.a(system_stm32f1xx.c.obj)
 .text.SystemCoreClockUpdate
                0x0000000000000000       0x54 modules/stm32/stm32cube/lib..__modules__hal__stm32__stm32cube.a(system_stm32f1xx.c.obj)
 .rodata.APBPrescTable
                0x0000000000000000        0x8 modules/stm32/stm32cube/lib..__modules__hal__stm32__stm32cube.a(system_stm32f1xx.c.obj)
 .text          0x0000000000000000        0x0 modules/stm32/stm32cube/lib..__modules__hal__stm32__stm32cube.a(stm32f1xx_hal.c.obj)
 .data          0x0000000000000000        0x0 modules/stm32/stm32cube/lib..__modules__hal__stm32__stm32cube.a(stm32f1xx_hal.c.obj)
 .bss           0x0000000000000000        0x0 modules/stm32/stm32cube/lib..__modules__hal__stm32__stm32cube.a(stm32f1xx_hal.c.obj)
 .text.HAL_MspInit
                0x0000000000000000        0x2 modules/stm32/stm32cube/lib..__modules__hal__stm32__stm32cube.a(stm32f1xx_hal.c.obj)
 .text.HAL_MspDeInit
                0x0000000000000000        0x2 modules/stm32/stm32cube/lib..__modules__hal__stm32__stm32cube.a(stm32f1xx_hal.c.obj)
 .text.HAL_DeInit
                0x0000000000000000       0x20 modules/stm32/stm32cube/lib..__modules__hal__stm32__stm32cube.a(stm32f1xx_hal.c.obj)
 .text.HAL_InitTick
                0x0000000000000000       0x48 modules/stm32/stm32cube/lib..__modules__hal__stm32__stm32cube.a(stm32f1xx_hal.c.obj)
 .text.HAL_Init
                0x0000000000000000       0x24 modules/stm32/stm32cube/lib..__modules__hal__stm32__stm32cube.a(stm32f1xx_hal.c.obj)
 .text.HAL_IncTick
                0x0000000000000000       0x18 modules/stm32/stm32cube/lib..__modules__hal__stm32__stm32cube.a(stm32f1xx_hal.c.obj)
 .text.HAL_GetTick
                0x0000000000000000        0xc modules/stm32/stm32cube/lib..__modules__hal__stm32__stm32cube.a(stm32f1xx_hal.c.obj)
 .text.HAL_GetTickPrio
                0x0000000000000000        0xc modules/stm32/stm32cube/lib..__modules__hal__stm32__stm32cube.a(stm32f1xx_hal.c.obj)
 .text.HAL_SetTickFreq
                0x0000000000000000       0x28 modules/stm32/stm32cube/lib..__modules__hal__stm32__stm32cube.a(stm32f1xx_hal.c.obj)
 .text.HAL_GetTickFreq
                0x0000000000000000        0xc modules/stm32/stm32cube/lib..__modules__hal__stm32__stm32cube.a(stm32f1xx_hal.c.obj)
 .text.HAL_Delay
                0x0000000000000000       0x24 modules/stm32/stm32cube/lib..__modules__hal__stm32__stm32cube.a(stm32f1xx_hal.c.obj)
 .text.HAL_SuspendTick
                0x0000000000000000        0xe modules/stm32/stm32cube/lib..__modules__hal__stm32__stm32cube.a(stm32f1xx_hal.c.obj)
 .text.HAL_ResumeTick
                0x0000000000000000        0xe modules/stm32/stm32cube/lib..__modules__hal__stm32__stm32cube.a(stm32f1xx_hal.c.obj)
 .text.HAL_GetHalVersion
                0x0000000000000000        0x8 modules/stm32/stm32cube/lib..__modules__hal__stm32__stm32cube.a(stm32f1xx_hal.c.obj)
 .text.HAL_GetREVID
                0x0000000000000000        0xc modules/stm32/stm32cube/lib..__modules__hal__stm32__stm32cube.a(stm32f1xx_hal.c.obj)
 .text.HAL_GetDEVID
                0x0000000000000000       0x10 modules/stm32/stm32cube/lib..__modules__hal__stm32__stm32cube.a(stm32f1xx_hal.c.obj)
 .text.HAL_GetUIDw0
                0x0000000000000000        0xc modules/stm32/stm32cube/lib..__modules__hal__stm32__stm32cube.a(stm32f1xx_hal.c.obj)
 .text.HAL_GetUIDw1
                0x0000000000000000        0xc modules/stm32/stm32cube/lib..__modules__hal__stm32__stm32cube.a(stm32f1xx_hal.c.obj)
 .text.HAL_GetUIDw2
                0x0000000000000000        0xc modules/stm32/stm32cube/lib..__modules__hal__stm32__stm32cube.a(stm32f1xx_hal.c.obj)
 .text.HAL_DBGMCU_EnableDBGSleepMode
                0x0000000000000000       0x10 modules/stm32/stm32cube/lib..__modules__hal__stm32__stm32cube.a(stm32f1xx_hal.c.obj)
 .text.HAL_DBGMCU_DisableDBGSleepMode
                0x0000000000000000       0x10 modules/stm32/stm32cube/lib..__modules__hal__stm32__stm32cube.a(stm32f1xx_hal.c.obj)
 .text.HAL_DBGMCU_EnableDBGStopMode
                0x0000000000000000       0x10 modules/stm32/stm32cube/lib..__modules__hal__stm32__stm32cube.a(stm32f1xx_hal.c.obj)
 .text.HAL_DBGMCU_DisableDBGStopMode
                0x0000000000000000       0x10 modules/stm32/stm32cube/lib..__modules__hal__stm32__stm32cube.a(stm32f1xx_hal.c.obj)
 .text.HAL_DBGMCU_EnableDBGStandbyMode
                0x0000000000000000       0x10 modules/stm32/stm32cube/lib..__modules__hal__stm32__stm32cube.a(stm32f1xx_hal.c.obj)
 .text.HAL_DBGMCU_DisableDBGStandbyMode
                0x0000000000000000       0x10 modules/stm32/stm32cube/lib..__modules__hal__stm32__stm32cube.a(stm32f1xx_hal.c.obj)
 .data.uwTickFreq
                0x0000000000000000        0x1 modules/stm32/stm32cube/lib..__modules__hal__stm32__stm32cube.a(stm32f1xx_hal.c.obj)
 .data.uwTickPrio
                0x0000000000000000        0x4 modules/stm32/stm32cube/lib..__modules__hal__stm32__stm32cube.a(stm32f1xx_hal.c.obj)
 .bss.uwTick    0x0000000000000000        0x4 modules/stm32/stm32cube/lib..__modules__hal__stm32__stm32cube.a(stm32f1xx_hal.c.obj)
 .debug_info    0x0000000000000000      0x7fd modules/stm32/stm32cube/lib..__modules__hal__stm32__stm32cube.a(stm32f1xx_hal.c.obj)
 .debug_abbrev  0x0000000000000000      0x274 modules/stm32/stm32cube/lib..__modules__hal__stm32__stm32cube.a(stm32f1xx_hal.c.obj)
 .debug_loc     0x0000000000000000      0x128 modules/stm32/stm32cube/lib..__modules__hal__stm32__stm32cube.a(stm32f1xx_hal.c.obj)
 .debug_aranges
                0x0000000000000000       0xe0 modules/stm32/stm32cube/lib..__modules__hal__stm32__stm32cube.a(stm32f1xx_hal.c.obj)
 .debug_ranges  0x0000000000000000       0xd0 modules/stm32/stm32cube/lib..__modules__hal__stm32__stm32cube.a(stm32f1xx_hal.c.obj)
 .debug_line    0x0000000000000000      0x5c3 modules/stm32/stm32cube/lib..__modules__hal__stm32__stm32cube.a(stm32f1xx_hal.c.obj)
 .debug_str     0x0000000000000000      0x8ff modules/stm32/stm32cube/lib..__modules__hal__stm32__stm32cube.a(stm32f1xx_hal.c.obj)
 .comment       0x0000000000000000       0x21 modules/stm32/stm32cube/lib..__modules__hal__stm32__stm32cube.a(stm32f1xx_hal.c.obj)
 .debug_frame   0x0000000000000000      0x1d4 modules/stm32/stm32cube/lib..__modules__hal__stm32__stm32cube.a(stm32f1xx_hal.c.obj)
 .text          0x0000000000000000        0x0 modules/stm32/stm32cube/lib..__modules__hal__stm32__stm32cube.a(stm32f1xx_hal_rcc.c.obj)
 .data          0x0000000000000000        0x0 modules/stm32/stm32cube/lib..__modules__hal__stm32__stm32cube.a(stm32f1xx_hal_rcc.c.obj)
 .bss           0x0000000000000000        0x0 modules/stm32/stm32cube/lib..__modules__hal__stm32__stm32cube.a(stm32f1xx_hal_rcc.c.obj)
 .text.HAL_RCC_DeInit
                0x0000000000000000       0xd8 modules/stm32/stm32cube/lib..__modules__hal__stm32__stm32cube.a(stm32f1xx_hal_rcc.c.obj)
 .text.HAL_RCC_OscConfig
                0x0000000000000000      0x32c modules/stm32/stm32cube/lib..__modules__hal__stm32__stm32cube.a(stm32f1xx_hal_rcc.c.obj)
 .text.HAL_RCC_MCOConfig
                0x0000000000000000       0x4c modules/stm32/stm32cube/lib..__modules__hal__stm32__stm32cube.a(stm32f1xx_hal_rcc.c.obj)
 .text.HAL_RCC_EnableCSS
                0x0000000000000000        0xc modules/stm32/stm32cube/lib..__modules__hal__stm32__stm32cube.a(stm32f1xx_hal_rcc.c.obj)
 .text.HAL_RCC_DisableCSS
                0x0000000000000000        0xc modules/stm32/stm32cube/lib..__modules__hal__stm32__stm32cube.a(stm32f1xx_hal_rcc.c.obj)
 .text.HAL_RCC_ClockConfig
                0x0000000000000000      0x140 modules/stm32/stm32cube/lib..__modules__hal__stm32__stm32cube.a(stm32f1xx_hal_rcc.c.obj)
 .text.HAL_RCC_GetHCLKFreq
                0x0000000000000000        0xc modules/stm32/stm32cube/lib..__modules__hal__stm32__stm32cube.a(stm32f1xx_hal_rcc.c.obj)
 .text.HAL_RCC_GetPCLK1Freq
                0x0000000000000000       0x20 modules/stm32/stm32cube/lib..__modules__hal__stm32__stm32cube.a(stm32f1xx_hal_rcc.c.obj)
 .text.HAL_RCC_GetPCLK2Freq
                0x0000000000000000       0x20 modules/stm32/stm32cube/lib..__modules__hal__stm32__stm32cube.a(stm32f1xx_hal_rcc.c.obj)
 .text.HAL_RCC_GetOscConfig
                0x0000000000000000       0x6c modules/stm32/stm32cube/lib..__modules__hal__stm32__stm32cube.a(stm32f1xx_hal_rcc.c.obj)
 .text.HAL_RCC_GetClockConfig
                0x0000000000000000       0x3c modules/stm32/stm32cube/lib..__modules__hal__stm32__stm32cube.a(stm32f1xx_hal_rcc.c.obj)
 .text.HAL_RCC_CSSCallback
                0x0000000000000000        0x2 modules/stm32/stm32cube/lib..__modules__hal__stm32__stm32cube.a(stm32f1xx_hal_rcc.c.obj)
 .text.HAL_RCC_NMI_IRQHandler
                0x0000000000000000       0x18 modules/stm32/stm32cube/lib..__modules__hal__stm32__stm32cube.a(stm32f1xx_hal_rcc.c.obj)
 .text          0x0000000000000000        0x0 modules/stm32/stm32cube/lib..__modules__hal__stm32__stm32cube.a(stm32f1xx_hal_rcc_ex.c.obj)
 .data          0x0000000000000000        0x0 modules/stm32/stm32cube/lib..__modules__hal__stm32__stm32cube.a(stm32f1xx_hal_rcc_ex.c.obj)
 .bss           0x0000000000000000        0x0 modules/stm32/stm32cube/lib..__modules__hal__stm32__stm32cube.a(stm32f1xx_hal_rcc_ex.c.obj)
 .text.HAL_RCCEx_PeriphCLKConfig
                0x0000000000000000       0xf4 modules/stm32/stm32cube/lib..__modules__hal__stm32__stm32cube.a(stm32f1xx_hal_rcc_ex.c.obj)
 .text.HAL_RCCEx_GetPeriphCLKConfig
                0x0000000000000000       0x2c modules/stm32/stm32cube/lib..__modules__hal__stm32__stm32cube.a(stm32f1xx_hal_rcc_ex.c.obj)
 .text.HAL_RCCEx_GetPeriphCLKFreq
                0x0000000000000000       0xbc modules/stm32/stm32cube/lib..__modules__hal__stm32__stm32cube.a(stm32f1xx_hal_rcc_ex.c.obj)
 .rodata.aPredivFactorTable.0
                0x0000000000000000        0x2 modules/stm32/stm32cube/lib..__modules__hal__stm32__stm32cube.a(stm32f1xx_hal_rcc_ex.c.obj)
 .rodata.aPLLMULFactorTable.1
                0x0000000000000000       0x10 modules/stm32/stm32cube/lib..__modules__hal__stm32__stm32cube.a(stm32f1xx_hal_rcc_ex.c.obj)
 .debug_info    0x0000000000000000      0x43a modules/stm32/stm32cube/lib..__modules__hal__stm32__stm32cube.a(stm32f1xx_hal_rcc_ex.c.obj)
 .debug_abbrev  0x0000000000000000      0x1d0 modules/stm32/stm32cube/lib..__modules__hal__stm32__stm32cube.a(stm32f1xx_hal_rcc_ex.c.obj)
 .debug_loc     0x0000000000000000      0x391 modules/stm32/stm32cube/lib..__modules__hal__stm32__stm32cube.a(stm32f1xx_hal_rcc_ex.c.obj)
 .debug_aranges
                0x0000000000000000       0x30 modules/stm32/stm32cube/lib..__modules__hal__stm32__stm32cube.a(stm32f1xx_hal_rcc_ex.c.obj)
 .debug_ranges  0x0000000000000000       0x58 modules/stm32/stm32cube/lib..__modules__hal__stm32__stm32cube.a(stm32f1xx_hal_rcc_ex.c.obj)
 .debug_line    0x0000000000000000      0x4ff modules/stm32/stm32cube/lib..__modules__hal__stm32__stm32cube.a(stm32f1xx_hal_rcc_ex.c.obj)
 .debug_str     0x0000000000000000      0x4a4 modules/stm32/stm32cube/lib..__modules__hal__stm32__stm32cube.a(stm32f1xx_hal_rcc_ex.c.obj)
 .comment       0x0000000000000000       0x21 modules/stm32/stm32cube/lib..__modules__hal__stm32__stm32cube.a(stm32f1xx_hal_rcc_ex.c.obj)
 .debug_frame   0x0000000000000000       0x60 modules/stm32/stm32cube/lib..__modules__hal__stm32__stm32cube.a(stm32f1xx_hal_rcc_ex.c.obj)
 .text          0x0000000000000000        0x0 modules/stm32/stm32cube/lib..__modules__hal__stm32__stm32cube.a(stm32f1xx_ll_i2c.c.obj)
 .data          0x0000000000000000        0x0 modules/stm32/stm32cube/lib..__modules__hal__stm32__stm32cube.a(stm32f1xx_ll_i2c.c.obj)
 .bss           0x0000000000000000        0x0 modules/stm32/stm32cube/lib..__modules__hal__stm32__stm32cube.a(stm32f1xx_ll_i2c.c.obj)
 .text.LL_I2C_DeInit
                0x0000000000000000       0x44 modules/stm32/stm32cube/lib..__modules__hal__stm32__stm32cube.a(stm32f1xx_ll_i2c.c.obj)
 .text.LL_I2C_Init
                0x0000000000000000       0xd8 modules/stm32/stm32cube/lib..__modules__hal__stm32__stm32cube.a(stm32f1xx_ll_i2c.c.obj)
 .text.LL_I2C_StructInit
                0x0000000000000000       0x18 modules/stm32/stm32cube/lib..__modules__hal__stm32__stm32cube.a(stm32f1xx_ll_i2c.c.obj)
 .debug_info    0x0000000000000000      0x6c7 modules/stm32/stm32cube/lib..__modules__hal__stm32__stm32cube.a(stm32f1xx_ll_i2c.c.obj)
 .debug_abbrev  0x0000000000000000      0x221 modules/stm32/stm32cube/lib..__modules__hal__stm32__stm32cube.a(stm32f1xx_ll_i2c.c.obj)
 .debug_loc     0x0000000000000000      0x3c6 modules/stm32/stm32cube/lib..__modules__hal__stm32__stm32cube.a(stm32f1xx_ll_i2c.c.obj)
 .debug_aranges
                0x0000000000000000       0x30 modules/stm32/stm32cube/lib..__modules__hal__stm32__stm32cube.a(stm32f1xx_ll_i2c.c.obj)
 .debug_ranges  0x0000000000000000       0x80 modules/stm32/stm32cube/lib..__modules__hal__stm32__stm32cube.a(stm32f1xx_ll_i2c.c.obj)
 .debug_line    0x0000000000000000      0x423 modules/stm32/stm32cube/lib..__modules__hal__stm32__stm32cube.a(stm32f1xx_ll_i2c.c.obj)
 .debug_str     0x0000000000000000      0x4e9 modules/stm32/stm32cube/lib..__modules__hal__stm32__stm32cube.a(stm32f1xx_ll_i2c.c.obj)
 .comment       0x0000000000000000       0x21 modules/stm32/stm32cube/lib..__modules__hal__stm32__stm32cube.a(stm32f1xx_ll_i2c.c.obj)
 .debug_frame   0x0000000000000000       0x58 modules/stm32/stm32cube/lib..__modules__hal__stm32__stm32cube.a(stm32f1xx_ll_i2c.c.obj)
 .text          0x0000000000000000        0x0 modules/stm32/stm32cube/lib..__modules__hal__stm32__stm32cube.a(stm32f1xx_ll_utils.c.obj)
 .data          0x0000000000000000        0x0 modules/stm32/stm32cube/lib..__modules__hal__stm32__stm32cube.a(stm32f1xx_ll_utils.c.obj)
 .bss           0x0000000000000000        0x0 modules/stm32/stm32cube/lib..__modules__hal__stm32__stm32cube.a(stm32f1xx_ll_utils.c.obj)
 .text.LL_Init1msTick
                0x0000000000000000       0x1a modules/stm32/stm32cube/lib..__modules__hal__stm32__stm32cube.a(stm32f1xx_ll_utils.c.obj)
 .text.LL_mDelay
                0x0000000000000000       0x26 modules/stm32/stm32cube/lib..__modules__hal__stm32__stm32cube.a(stm32f1xx_ll_utils.c.obj)
 .text.LL_SetSystemCoreClock
                0x0000000000000000        0xc modules/stm32/stm32cube/lib..__modules__hal__stm32__stm32cube.a(stm32f1xx_ll_utils.c.obj)
 .text.UTILS_EnablePLLAndSwitchSystem
                0x0000000000000000       0xa0 modules/stm32/stm32cube/lib..__modules__hal__stm32__stm32cube.a(stm32f1xx_ll_utils.c.obj)
 .text.LL_PLL_ConfigSystemClock_HSI
                0x0000000000000000       0x50 modules/stm32/stm32cube/lib..__modules__hal__stm32__stm32cube.a(stm32f1xx_ll_utils.c.obj)
 .text.LL_PLL_ConfigSystemClock_HSE
                0x0000000000000000       0x6c modules/stm32/stm32cube/lib..__modules__hal__stm32__stm32cube.a(stm32f1xx_ll_utils.c.obj)
 .text          0x0000000000000000        0x0 zephyr/kernel/libkernel.a(device.c.obj)
 .data          0x0000000000000000        0x0 zephyr/kernel/libkernel.a(device.c.obj)
 .bss           0x0000000000000000        0x0 zephyr/kernel/libkernel.a(device.c.obj)
 .text.z_device_get_all_static
                0x0000000000000000       0x18 zephyr/kernel/libkernel.a(device.c.obj)
 .text.z_impl_device_get_binding
                0x0000000000000000       0x54 zephyr/kernel/libkernel.a(device.c.obj)
 .text          0x0000000000000000        0x0 zephyr/kernel/libkernel.a(fatal.c.obj)
 .data          0x0000000000000000        0x0 zephyr/kernel/libkernel.a(fatal.c.obj)
 .bss           0x0000000000000000        0x0 zephyr/kernel/libkernel.a(fatal.c.obj)
 .text.k_fatal_halt
                0x0000000000000000        0x6 zephyr/kernel/libkernel.a(fatal.c.obj)
 .text          0x0000000000000000        0x0 zephyr/kernel/libkernel.a(init.c.obj)
 .data          0x0000000000000000        0x0 zephyr/kernel/libkernel.a(init.c.obj)
 .bss           0x0000000000000000        0x0 zephyr/kernel/libkernel.a(init.c.obj)
 .text.z_impl_device_init
                0x0000000000000000       0x28 zephyr/kernel/libkernel.a(init.c.obj)
 .text.z_early_rand_get
                0x0000000000000000       0x70 zephyr/kernel/libkernel.a(init.c.obj)
 .data.state.1  0x0000000000000000        0x8 zephyr/kernel/libkernel.a(init.c.obj)
 .text          0x0000000000000000        0x0 zephyr/kernel/libkernel.a(init_static.c.obj)
 .data          0x0000000000000000        0x0 zephyr/kernel/libkernel.a(init_static.c.obj)
 .bss           0x0000000000000000        0x0 zephyr/kernel/libkernel.a(init_static.c.obj)
 .text          0x0000000000000000        0x0 zephyr/kernel/libkernel.a(idle.c.obj)
 .data          0x0000000000000000        0x0 zephyr/kernel/libkernel.a(idle.c.obj)
 .bss           0x0000000000000000        0x0 zephyr/kernel/libkernel.a(idle.c.obj)
 .text.arch_spin_relax
                0x0000000000000000        0x4 zephyr/kernel/libkernel.a(idle.c.obj)
 .text          0x0000000000000000        0x0 zephyr/kernel/libkernel.a(mutex.c.obj)
 .data          0x0000000000000000        0x0 zephyr/kernel/libkernel.a(mutex.c.obj)
 .bss           0x0000000000000000        0x0 zephyr/kernel/libkernel.a(mutex.c.obj)
 .text.z_impl_k_mutex_init
                0x0000000000000000        0xe zephyr/kernel/libkernel.a(mutex.c.obj)
 .text          0x0000000000000000        0x0 zephyr/kernel/libkernel.a(sem.c.obj)
 .data          0x0000000000000000        0x0 zephyr/kernel/libkernel.a(sem.c.obj)
 .bss           0x0000000000000000        0x0 zephyr/kernel/libkernel.a(sem.c.obj)
 .text          0x0000000000000000        0x0 zephyr/kernel/libkernel.a(thread.c.obj)
 .data          0x0000000000000000        0x0 zephyr/kernel/libkernel.a(thread.c.obj)
 .bss           0x0000000000000000        0x0 zephyr/kernel/libkernel.a(thread.c.obj)
 .text.z_impl_k_is_preempt_thread
                0x0000000000000000       0x20 zephyr/kernel/libkernel.a(thread.c.obj)
 .text.z_impl_k_thread_priority_get
                0x0000000000000000        0x6 zephyr/kernel/libkernel.a(thread.c.obj)
 .text.z_impl_k_thread_name_copy
                0x0000000000000000        0x6 zephyr/kernel/libkernel.a(thread.c.obj)
 .rodata.k_thread_state_str.str1.1
                0x0000000000000000        0x3 zephyr/kernel/libkernel.a(thread.c.obj)
 .text.k_thread_state_str
                0x0000000000000000       0x90 zephyr/kernel/libkernel.a(thread.c.obj)
 .text.z_init_thread_base
                0x0000000000000000       0x14 zephyr/kernel/libkernel.a(thread.c.obj)
 .text.k_thread_user_mode_enter
                0x0000000000000000       0x1c zephyr/kernel/libkernel.a(thread.c.obj)
 .text.k_thread_runtime_stats_get
                0x0000000000000000       0x14 zephyr/kernel/libkernel.a(thread.c.obj)
 .text.k_thread_runtime_stats_all_get
                0x0000000000000000        0xc zephyr/kernel/libkernel.a(thread.c.obj)
 .rodata.str1.1
                0x0000000000000000       0x41 zephyr/kernel/libkernel.a(thread.c.obj)
 .rodata.state_string.0
                0x0000000000000000       0x40 zephyr/kernel/libkernel.a(thread.c.obj)
 .text          0x0000000000000000        0x0 zephyr/kernel/libkernel.a(sched.c.obj)
 .data          0x0000000000000000        0x0 zephyr/kernel/libkernel.a(sched.c.obj)
 .bss           0x0000000000000000        0x0 zephyr/kernel/libkernel.a(sched.c.obj)
 .text.z_sched_prio_cmp
                0x0000000000000000       0x12 zephyr/kernel/libkernel.a(sched.c.obj)
 .text.z_requeue_current
                0x0000000000000000       0x50 zephyr/kernel/libkernel.a(sched.c.obj)
 .text.z_ready_thread_locked
                0x0000000000000000        0x4 zephyr/kernel/libkernel.a(sched.c.obj)
 .text.z_move_thread_to_end_of_prio_q
                0x0000000000000000       0x1e zephyr/kernel/libkernel.a(sched.c.obj)
 .text.z_pend_thread
                0x0000000000000000       0x44 zephyr/kernel/libkernel.a(sched.c.obj)
 .text.z_unpend_thread
                0x0000000000000000       0x2e zephyr/kernel/libkernel.a(sched.c.obj)
 .text.z_impl_k_thread_resume
                0x0000000000000000       0x3c zephyr/kernel/libkernel.a(sched.c.obj)
 .text.z_swap_next_thread
                0x0000000000000000        0xc zephyr/kernel/libkernel.a(sched.c.obj)
 .text.z_unpend_all
                0x0000000000000000       0x26 zephyr/kernel/libkernel.a(sched.c.obj)
 .text.init_ready_q
                0x0000000000000000        0x8 zephyr/kernel/libkernel.a(sched.c.obj)
 .text.z_impl_k_thread_priority_set
                0x0000000000000000       0x2c zephyr/kernel/libkernel.a(sched.c.obj)
 .text.k_can_yield
                0x0000000000000000       0x30 zephyr/kernel/libkernel.a(sched.c.obj)
 .text.z_impl_k_usleep
                0x0000000000000000       0x22 zephyr/kernel/libkernel.a(sched.c.obj)
 .text.z_impl_k_wakeup
                0x0000000000000000       0x58 zephyr/kernel/libkernel.a(sched.c.obj)
 .text.z_impl_k_thread_join
                0x0000000000000000       0x80 zephyr/kernel/libkernel.a(sched.c.obj)
 .text.z_sched_wake
                0x0000000000000000       0x44 zephyr/kernel/libkernel.a(sched.c.obj)
 .text.z_sched_wait
                0x0000000000000000       0x24 zephyr/kernel/libkernel.a(sched.c.obj)
 .text.z_sched_waitq_walk
                0x0000000000000000       0x44 zephyr/kernel/libkernel.a(sched.c.obj)
 .text          0x0000000000000000        0x0 zephyr/kernel/libkernel.a(timeslicing.c.obj)
 .data          0x0000000000000000        0x0 zephyr/kernel/libkernel.a(timeslicing.c.obj)
 .bss           0x0000000000000000        0x0 zephyr/kernel/libkernel.a(timeslicing.c.obj)
 .text.k_sched_time_slice_set
                0x0000000000000000       0x3c zephyr/kernel/libkernel.a(timeslicing.c.obj)
 .text          0x0000000000000000        0x0 zephyr/kernel/libkernel.a(xip.c.obj)
 .data          0x0000000000000000        0x0 zephyr/kernel/libkernel.a(xip.c.obj)
 .bss           0x0000000000000000        0x0 zephyr/kernel/libkernel.a(xip.c.obj)
 .text          0x0000000000000000        0x0 zephyr/kernel/libkernel.a(timeout.c.obj)
 .data          0x0000000000000000        0x0 zephyr/kernel/libkernel.a(timeout.c.obj)
 .bss           0x0000000000000000        0x0 zephyr/kernel/libkernel.a(timeout.c.obj)
 .text.timeout_rem
                0x0000000000000000       0x34 zephyr/kernel/libkernel.a(timeout.c.obj)
 .text.z_timeout_remaining
                0x0000000000000000       0x38 zephyr/kernel/libkernel.a(timeout.c.obj)
 .text.z_timeout_expires
                0x0000000000000000       0x38 zephyr/kernel/libkernel.a(timeout.c.obj)
 .text.z_get_next_timeout_expiry
                0x0000000000000000       0x1e zephyr/kernel/libkernel.a(timeout.c.obj)
 .text.sys_timepoint_calc
                0x0000000000000000       0x48 zephyr/kernel/libkernel.a(timeout.c.obj)
 .text.sys_timepoint_timeout
                0x0000000000000000       0x42 zephyr/kernel/libkernel.a(timeout.c.obj)
 .text          0x0000000000000000        0x0 zephyr/kernel/libkernel.a(timer.c.obj)
 .data          0x0000000000000000        0x0 zephyr/kernel/libkernel.a(timer.c.obj)
 .bss           0x0000000000000000        0x0 zephyr/kernel/libkernel.a(timer.c.obj)
 .text.z_impl_k_timer_status_get
                0x0000000000000000       0x20 zephyr/kernel/libkernel.a(timer.c.obj)
 .text.z_impl_k_timer_status_sync
                0x0000000000000000       0x54 zephyr/kernel/libkernel.a(timer.c.obj)
 .bss.lock      0x0000000000000000        0x0 zephyr/kernel/libkernel.a(timer.c.obj)
 .text          0x0000000000000000        0x0 zephyr/kernel/libkernel.a(banner.c.obj)
 .data          0x0000000000000000        0x0 zephyr/kernel/libkernel.a(banner.c.obj)
 .bss           0x0000000000000000        0x0 zephyr/kernel/libkernel.a(banner.c.obj)
 .text          0x0000000000000000      0x254 /home/romain/zephyr-sdk-0.16.1/arm-zephyr-eabi/bin/../lib/gcc/arm-zephyr-eabi/12.2.0/thumb/v7-m/nofp/libgcc.a(_arm_muldf3.o)
 .data          0x0000000000000000        0x0 /home/romain/zephyr-sdk-0.16.1/arm-zephyr-eabi/bin/../lib/gcc/arm-zephyr-eabi/12.2.0/thumb/v7-m/nofp/libgcc.a(_arm_muldf3.o)
 .bss           0x0000000000000000        0x0 /home/romain/zephyr-sdk-0.16.1/arm-zephyr-eabi/bin/../lib/gcc/arm-zephyr-eabi/12.2.0/thumb/v7-m/nofp/libgcc.a(_arm_muldf3.o)
 .debug_frame   0x0000000000000000       0x30 /home/romain/zephyr-sdk-0.16.1/arm-zephyr-eabi/bin/../lib/gcc/arm-zephyr-eabi/12.2.0/thumb/v7-m/nofp/libgcc.a(_arm_muldf3.o)
 .text          0x0000000000000000      0x168 /home/romain/zephyr-sdk-0.16.1/arm-zephyr-eabi/bin/../lib/gcc/arm-zephyr-eabi/12.2.0/thumb/v7-m/nofp/libgcc.a(_arm_mulsf3.o)
 .data          0x0000000000000000        0x0 /home/romain/zephyr-sdk-0.16.1/arm-zephyr-eabi/bin/../lib/gcc/arm-zephyr-eabi/12.2.0/thumb/v7-m/nofp/libgcc.a(_arm_mulsf3.o)
 .bss           0x0000000000000000        0x0 /home/romain/zephyr-sdk-0.16.1/arm-zephyr-eabi/bin/../lib/gcc/arm-zephyr-eabi/12.2.0/thumb/v7-m/nofp/libgcc.a(_arm_mulsf3.o)
 .debug_frame   0x0000000000000000       0x24 /home/romain/zephyr-sdk-0.16.1/arm-zephyr-eabi/bin/../lib/gcc/arm-zephyr-eabi/12.2.0/thumb/v7-m/nofp/libgcc.a(_arm_mulsf3.o)
 .data          0x0000000000000000        0x0 /home/romain/zephyr-sdk-0.16.1/arm-zephyr-eabi/bin/../lib/gcc/arm-zephyr-eabi/12.2.0/thumb/v7-m/nofp/libgcc.a(_arm_addsubdf3.o)
 .bss           0x0000000000000000        0x0 /home/romain/zephyr-sdk-0.16.1/arm-zephyr-eabi/bin/../lib/gcc/arm-zephyr-eabi/12.2.0/thumb/v7-m/nofp/libgcc.a(_arm_addsubdf3.o)
 .text          0x0000000000000000      0x424 /home/romain/zephyr-sdk-0.16.1/arm-zephyr-eabi/bin/../lib/gcc/arm-zephyr-eabi/12.2.0/thumb/v7-m/nofp/libgcc.a(_arm_muldivdf3.o)
 .data          0x0000000000000000        0x0 /home/romain/zephyr-sdk-0.16.1/arm-zephyr-eabi/bin/../lib/gcc/arm-zephyr-eabi/12.2.0/thumb/v7-m/nofp/libgcc.a(_arm_muldivdf3.o)
 .bss           0x0000000000000000        0x0 /home/romain/zephyr-sdk-0.16.1/arm-zephyr-eabi/bin/../lib/gcc/arm-zephyr-eabi/12.2.0/thumb/v7-m/nofp/libgcc.a(_arm_muldivdf3.o)
 .debug_frame   0x0000000000000000       0x50 /home/romain/zephyr-sdk-0.16.1/arm-zephyr-eabi/bin/../lib/gcc/arm-zephyr-eabi/12.2.0/thumb/v7-m/nofp/libgcc.a(_arm_muldivdf3.o)
 .text          0x0000000000000000       0xa0 /home/romain/zephyr-sdk-0.16.1/arm-zephyr-eabi/bin/../lib/gcc/arm-zephyr-eabi/12.2.0/thumb/v7-m/nofp/libgcc.a(_arm_truncdfsf2.o)
 .data          0x0000000000000000        0x0 /home/romain/zephyr-sdk-0.16.1/arm-zephyr-eabi/bin/../lib/gcc/arm-zephyr-eabi/12.2.0/thumb/v7-m/nofp/libgcc.a(_arm_truncdfsf2.o)
 .bss           0x0000000000000000        0x0 /home/romain/zephyr-sdk-0.16.1/arm-zephyr-eabi/bin/../lib/gcc/arm-zephyr-eabi/12.2.0/thumb/v7-m/nofp/libgcc.a(_arm_truncdfsf2.o)
 .debug_frame   0x0000000000000000       0x24 /home/romain/zephyr-sdk-0.16.1/arm-zephyr-eabi/bin/../lib/gcc/arm-zephyr-eabi/12.2.0/thumb/v7-m/nofp/libgcc.a(_arm_truncdfsf2.o)
 .data          0x0000000000000000        0x0 /home/romain/zephyr-sdk-0.16.1/arm-zephyr-eabi/bin/../lib/gcc/arm-zephyr-eabi/12.2.0/thumb/v7-m/nofp/libgcc.a(_arm_addsubsf3.o)
 .bss           0x0000000000000000        0x0 /home/romain/zephyr-sdk-0.16.1/arm-zephyr-eabi/bin/../lib/gcc/arm-zephyr-eabi/12.2.0/thumb/v7-m/nofp/libgcc.a(_arm_addsubsf3.o)
 .data          0x0000000000000000        0x0 /home/romain/zephyr-sdk-0.16.1/arm-zephyr-eabi/bin/../lib/gcc/arm-zephyr-eabi/12.2.0/thumb/v7-m/nofp/libgcc.a(_arm_muldivsf3.o)
 .bss           0x0000000000000000        0x0 /home/romain/zephyr-sdk-0.16.1/arm-zephyr-eabi/bin/../lib/gcc/arm-zephyr-eabi/12.2.0/thumb/v7-m/nofp/libgcc.a(_arm_muldivsf3.o)
 .data          0x0000000000000000        0x0 /home/romain/zephyr-sdk-0.16.1/arm-zephyr-eabi/bin/../lib/gcc/arm-zephyr-eabi/12.2.0/thumb/v7-m/nofp/libgcc.a(_arm_cmpsf2.o)
 .bss           0x0000000000000000        0x0 /home/romain/zephyr-sdk-0.16.1/arm-zephyr-eabi/bin/../lib/gcc/arm-zephyr-eabi/12.2.0/thumb/v7-m/nofp/libgcc.a(_arm_cmpsf2.o)
 .data          0x0000000000000000        0x0 /home/romain/zephyr-sdk-0.16.1/arm-zephyr-eabi/bin/../lib/gcc/arm-zephyr-eabi/12.2.0/thumb/v7-m/nofp/libgcc.a(_arm_fixsfsi.o)
 .bss           0x0000000000000000        0x0 /home/romain/zephyr-sdk-0.16.1/arm-zephyr-eabi/bin/../lib/gcc/arm-zephyr-eabi/12.2.0/thumb/v7-m/nofp/libgcc.a(_arm_fixsfsi.o)
 .text          0x0000000000000000       0xa0 /home/romain/zephyr-sdk-0.16.1/arm-zephyr-eabi/bin/../lib/gcc/arm-zephyr-eabi/12.2.0/thumb/v7-m/nofp/libgcc.a(_aeabi_ldivmod.o)
 .data          0x0000000000000000        0x0 /home/romain/zephyr-sdk-0.16.1/arm-zephyr-eabi/bin/../lib/gcc/arm-zephyr-eabi/12.2.0/thumb/v7-m/nofp/libgcc.a(_aeabi_ldivmod.o)
 .bss           0x0000000000000000        0x0 /home/romain/zephyr-sdk-0.16.1/arm-zephyr-eabi/bin/../lib/gcc/arm-zephyr-eabi/12.2.0/thumb/v7-m/nofp/libgcc.a(_aeabi_ldivmod.o)
 .debug_frame   0x0000000000000000       0x44 /home/romain/zephyr-sdk-0.16.1/arm-zephyr-eabi/bin/../lib/gcc/arm-zephyr-eabi/12.2.0/thumb/v7-m/nofp/libgcc.a(_aeabi_ldivmod.o)
 .data          0x0000000000000000        0x0 /home/romain/zephyr-sdk-0.16.1/arm-zephyr-eabi/bin/../lib/gcc/arm-zephyr-eabi/12.2.0/thumb/v7-m/nofp/libgcc.a(_aeabi_uldivmod.o)
 .bss           0x0000000000000000        0x0 /home/romain/zephyr-sdk-0.16.1/arm-zephyr-eabi/bin/../lib/gcc/arm-zephyr-eabi/12.2.0/thumb/v7-m/nofp/libgcc.a(_aeabi_uldivmod.o)
 .text          0x0000000000000000       0x26 /home/romain/zephyr-sdk-0.16.1/arm-zephyr-eabi/bin/../lib/gcc/arm-zephyr-eabi/12.2.0/thumb/v7-m/nofp/libgcc.a(_popcountsi2.o)
 .data          0x0000000000000000        0x0 /home/romain/zephyr-sdk-0.16.1/arm-zephyr-eabi/bin/../lib/gcc/arm-zephyr-eabi/12.2.0/thumb/v7-m/nofp/libgcc.a(_popcountsi2.o)
 .bss           0x0000000000000000        0x0 /home/romain/zephyr-sdk-0.16.1/arm-zephyr-eabi/bin/../lib/gcc/arm-zephyr-eabi/12.2.0/thumb/v7-m/nofp/libgcc.a(_popcountsi2.o)
 .debug_frame   0x0000000000000000       0x20 /home/romain/zephyr-sdk-0.16.1/arm-zephyr-eabi/bin/../lib/gcc/arm-zephyr-eabi/12.2.0/thumb/v7-m/nofp/libgcc.a(_popcountsi2.o)
 .text          0x0000000000000000       0x2e /home/romain/zephyr-sdk-0.16.1/arm-zephyr-eabi/bin/../lib/gcc/arm-zephyr-eabi/12.2.0/thumb/v7-m/nofp/libgcc.a(_fixdfdi.o)
 .data          0x0000000000000000        0x0 /home/romain/zephyr-sdk-0.16.1/arm-zephyr-eabi/bin/../lib/gcc/arm-zephyr-eabi/12.2.0/thumb/v7-m/nofp/libgcc.a(_fixdfdi.o)
 .bss           0x0000000000000000        0x0 /home/romain/zephyr-sdk-0.16.1/arm-zephyr-eabi/bin/../lib/gcc/arm-zephyr-eabi/12.2.0/thumb/v7-m/nofp/libgcc.a(_fixdfdi.o)
 .debug_frame   0x0000000000000000       0x38 /home/romain/zephyr-sdk-0.16.1/arm-zephyr-eabi/bin/../lib/gcc/arm-zephyr-eabi/12.2.0/thumb/v7-m/nofp/libgcc.a(_fixdfdi.o)
 .text          0x0000000000000000       0x3c /home/romain/zephyr-sdk-0.16.1/arm-zephyr-eabi/bin/../lib/gcc/arm-zephyr-eabi/12.2.0/thumb/v7-m/nofp/libgcc.a(_fixunsdfdi.o)
 .data          0x0000000000000000        0x0 /home/romain/zephyr-sdk-0.16.1/arm-zephyr-eabi/bin/../lib/gcc/arm-zephyr-eabi/12.2.0/thumb/v7-m/nofp/libgcc.a(_fixunsdfdi.o)
 .bss           0x0000000000000000        0x0 /home/romain/zephyr-sdk-0.16.1/arm-zephyr-eabi/bin/../lib/gcc/arm-zephyr-eabi/12.2.0/thumb/v7-m/nofp/libgcc.a(_fixunsdfdi.o)
 .debug_frame   0x0000000000000000       0x2c /home/romain/zephyr-sdk-0.16.1/arm-zephyr-eabi/bin/../lib/gcc/arm-zephyr-eabi/12.2.0/thumb/v7-m/nofp/libgcc.a(_fixunsdfdi.o)
 .data          0x0000000000000000        0x0 /home/romain/zephyr-sdk-0.16.1/arm-zephyr-eabi/bin/../lib/gcc/arm-zephyr-eabi/12.2.0/thumb/v7-m/nofp/libgcc.a(_udivmoddi4.o)
 .bss           0x0000000000000000        0x0 /home/romain/zephyr-sdk-0.16.1/arm-zephyr-eabi/bin/../lib/gcc/arm-zephyr-eabi/12.2.0/thumb/v7-m/nofp/libgcc.a(_udivmoddi4.o)
 .ARM.extab     0x0000000000000000        0x0 /home/romain/zephyr-sdk-0.16.1/arm-zephyr-eabi/bin/../lib/gcc/arm-zephyr-eabi/12.2.0/thumb/v7-m/nofp/libgcc.a(_udivmoddi4.o)
 .data          0x0000000000000000        0x0 /home/romain/zephyr-sdk-0.16.1/arm-zephyr-eabi/bin/../lib/gcc/arm-zephyr-eabi/12.2.0/thumb/v7-m/nofp/libgcc.a(_dvmd_tls.o)
 .bss           0x0000000000000000        0x0 /home/romain/zephyr-sdk-0.16.1/arm-zephyr-eabi/bin/../lib/gcc/arm-zephyr-eabi/12.2.0/thumb/v7-m/nofp/libgcc.a(_dvmd_tls.o)
 .text          0x0000000000000000      0x110 /home/romain/zephyr-sdk-0.16.1/arm-zephyr-eabi/bin/../lib/gcc/arm-zephyr-eabi/12.2.0/thumb/v7-m/nofp/libgcc.a(_arm_cmpdf2.o)
 .data          0x0000000000000000        0x0 /home/romain/zephyr-sdk-0.16.1/arm-zephyr-eabi/bin/../lib/gcc/arm-zephyr-eabi/12.2.0/thumb/v7-m/nofp/libgcc.a(_arm_cmpdf2.o)
 .bss           0x0000000000000000        0x0 /home/romain/zephyr-sdk-0.16.1/arm-zephyr-eabi/bin/../lib/gcc/arm-zephyr-eabi/12.2.0/thumb/v7-m/nofp/libgcc.a(_arm_cmpdf2.o)
 .debug_frame   0x0000000000000000       0xc4 /home/romain/zephyr-sdk-0.16.1/arm-zephyr-eabi/bin/../lib/gcc/arm-zephyr-eabi/12.2.0/thumb/v7-m/nofp/libgcc.a(_arm_cmpdf2.o)
 .text          0x0000000000000000       0x40 /home/romain/zephyr-sdk-0.16.1/arm-zephyr-eabi/bin/../lib/gcc/arm-zephyr-eabi/12.2.0/thumb/v7-m/nofp/libgcc.a(_arm_fixunsdfsi.o)
 .data          0x0000000000000000        0x0 /home/romain/zephyr-sdk-0.16.1/arm-zephyr-eabi/bin/../lib/gcc/arm-zephyr-eabi/12.2.0/thumb/v7-m/nofp/libgcc.a(_arm_fixunsdfsi.o)
 .bss           0x0000000000000000        0x0 /home/romain/zephyr-sdk-0.16.1/arm-zephyr-eabi/bin/../lib/gcc/arm-zephyr-eabi/12.2.0/thumb/v7-m/nofp/libgcc.a(_arm_fixunsdfsi.o)
 .debug_frame   0x0000000000000000       0x24 /home/romain/zephyr-sdk-0.16.1/arm-zephyr-eabi/bin/../lib/gcc/arm-zephyr-eabi/12.2.0/thumb/v7-m/nofp/libgcc.a(_arm_fixunsdfsi.o)
 .text          0x0000000000000000        0x0 zephyr/arch/common/libisr_tables.a(isr_tables.c.obj)
 .data          0x0000000000000000        0x0 zephyr/arch/common/libisr_tables.a(isr_tables.c.obj)
 .bss           0x0000000000000000        0x0 zephyr/arch/common/libisr_tables.a(isr_tables.c.obj)
 .text          0x0000000000000000        0x0 /home/romain/zephyr-sdk-0.16.1/arm-zephyr-eabi/bin/../lib/gcc/../../picolibc/arm-zephyr-eabi/lib/thumb/v7-m/nofp/libc.a(libc_ctype_ctype_.c.o)
 .data          0x0000000000000000        0x0 /home/romain/zephyr-sdk-0.16.1/arm-zephyr-eabi/bin/../lib/gcc/../../picolibc/arm-zephyr-eabi/lib/thumb/v7-m/nofp/libc.a(libc_ctype_ctype_.c.o)
 .bss           0x0000000000000000        0x0 /home/romain/zephyr-sdk-0.16.1/arm-zephyr-eabi/bin/../lib/gcc/../../picolibc/arm-zephyr-eabi/lib/thumb/v7-m/nofp/libc.a(libc_ctype_ctype_.c.o)
 .text          0x0000000000000000        0x0 /home/romain/zephyr-sdk-0.16.1/arm-zephyr-eabi/bin/../lib/gcc/../../picolibc/arm-zephyr-eabi/lib/thumb/v7-m/nofp/libc.a(libc_errno_errno.c.o)
 .data          0x0000000000000000        0x0 /home/romain/zephyr-sdk-0.16.1/arm-zephyr-eabi/bin/../lib/gcc/../../picolibc/arm-zephyr-eabi/lib/thumb/v7-m/nofp/libc.a(libc_errno_errno.c.o)
 .bss           0x0000000000000000        0x0 /home/romain/zephyr-sdk-0.16.1/arm-zephyr-eabi/bin/../lib/gcc/../../picolibc/arm-zephyr-eabi/lib/thumb/v7-m/nofp/libc.a(libc_errno_errno.c.o)
 .tbss.errno    0x0000000000000000        0x4 /home/romain/zephyr-sdk-0.16.1/arm-zephyr-eabi/bin/../lib/gcc/../../picolibc/arm-zephyr-eabi/lib/thumb/v7-m/nofp/libc.a(libc_errno_errno.c.o)
 .text          0x0000000000000000        0x0 /home/romain/zephyr-sdk-0.16.1/arm-zephyr-eabi/bin/../lib/gcc/../../picolibc/arm-zephyr-eabi/lib/thumb/v7-m/nofp/libc.a(libc_string_strnlen.c.o)
 .data          0x0000000000000000        0x0 /home/romain/zephyr-sdk-0.16.1/arm-zephyr-eabi/bin/../lib/gcc/../../picolibc/arm-zephyr-eabi/lib/thumb/v7-m/nofp/libc.a(libc_string_strnlen.c.o)
 .bss           0x0000000000000000        0x0 /home/romain/zephyr-sdk-0.16.1/arm-zephyr-eabi/bin/../lib/gcc/../../picolibc/arm-zephyr-eabi/lib/thumb/v7-m/nofp/libc.a(libc_string_strnlen.c.o)
 .text          0x0000000000000000        0x0 /home/romain/zephyr-sdk-0.16.1/arm-zephyr-eabi/bin/../lib/gcc/../../picolibc/arm-zephyr-eabi/lib/thumb/v7-m/nofp/libc.a(libc_tinystdio_snprintf.c.o)
 .data          0x0000000000000000        0x0 /home/romain/zephyr-sdk-0.16.1/arm-zephyr-eabi/bin/../lib/gcc/../../picolibc/arm-zephyr-eabi/lib/thumb/v7-m/nofp/libc.a(libc_tinystdio_snprintf.c.o)
 .bss           0x0000000000000000        0x0 /home/romain/zephyr-sdk-0.16.1/arm-zephyr-eabi/bin/../lib/gcc/../../picolibc/arm-zephyr-eabi/lib/thumb/v7-m/nofp/libc.a(libc_tinystdio_snprintf.c.o)
 .text          0x0000000000000000        0x0 /home/romain/zephyr-sdk-0.16.1/arm-zephyr-eabi/bin/../lib/gcc/../../picolibc/arm-zephyr-eabi/lib/thumb/v7-m/nofp/libc.a(libc_tinystdio_vfprintf.c.o)
 .data          0x0000000000000000        0x0 /home/romain/zephyr-sdk-0.16.1/arm-zephyr-eabi/bin/../lib/gcc/../../picolibc/arm-zephyr-eabi/lib/thumb/v7-m/nofp/libc.a(libc_tinystdio_vfprintf.c.o)
 .bss           0x0000000000000000        0x0 /home/romain/zephyr-sdk-0.16.1/arm-zephyr-eabi/bin/../lib/gcc/../../picolibc/arm-zephyr-eabi/lib/thumb/v7-m/nofp/libc.a(libc_tinystdio_vfprintf.c.o)
 .text          0x0000000000000000        0x0 /home/romain/zephyr-sdk-0.16.1/arm-zephyr-eabi/bin/../lib/gcc/../../picolibc/arm-zephyr-eabi/lib/thumb/v7-m/nofp/libc.a(libc_tinystdio_vfscanf.c.o)
 .data          0x0000000000000000        0x0 /home/romain/zephyr-sdk-0.16.1/arm-zephyr-eabi/bin/../lib/gcc/../../picolibc/arm-zephyr-eabi/lib/thumb/v7-m/nofp/libc.a(libc_tinystdio_vfscanf.c.o)
 .bss           0x0000000000000000        0x0 /home/romain/zephyr-sdk-0.16.1/arm-zephyr-eabi/bin/../lib/gcc/../../picolibc/arm-zephyr-eabi/lib/thumb/v7-m/nofp/libc.a(libc_tinystdio_vfscanf.c.o)
 .text.scanf_getc
                0x0000000000000000       0x14 /home/romain/zephyr-sdk-0.16.1/arm-zephyr-eabi/bin/../lib/gcc/../../picolibc/arm-zephyr-eabi/lib/thumb/v7-m/nofp/libc.a(libc_tinystdio_vfscanf.c.o)
 .text.putval   0x0000000000000000       0x30 /home/romain/zephyr-sdk-0.16.1/arm-zephyr-eabi/bin/../lib/gcc/../../picolibc/arm-zephyr-eabi/lib/thumb/v7-m/nofp/libc.a(libc_tinystdio_vfscanf.c.o)
 .text.scanf_ungetc.isra.0
                0x0000000000000000       0x16 /home/romain/zephyr-sdk-0.16.1/arm-zephyr-eabi/bin/../lib/gcc/../../picolibc/arm-zephyr-eabi/lib/thumb/v7-m/nofp/libc.a(libc_tinystdio_vfscanf.c.o)
 .text.skip_spaces
                0x0000000000000000       0x2a /home/romain/zephyr-sdk-0.16.1/arm-zephyr-eabi/bin/../lib/gcc/../../picolibc/arm-zephyr-eabi/lib/thumb/v7-m/nofp/libc.a(libc_tinystdio_vfscanf.c.o)
 .rodata.vfscanf.str1.1
                0x0000000000000000       0x12 /home/romain/zephyr-sdk-0.16.1/arm-zephyr-eabi/bin/../lib/gcc/../../picolibc/arm-zephyr-eabi/lib/thumb/v7-m/nofp/libc.a(libc_tinystdio_vfscanf.c.o)
 .text.vfscanf  0x0000000000000000      0x830 /home/romain/zephyr-sdk-0.16.1/arm-zephyr-eabi/bin/../lib/gcc/../../picolibc/arm-zephyr-eabi/lib/thumb/v7-m/nofp/libc.a(libc_tinystdio_vfscanf.c.o)
 .rodata.pstr_an
                0x0000000000000000        0x3 /home/romain/zephyr-sdk-0.16.1/arm-zephyr-eabi/bin/../lib/gcc/../../picolibc/arm-zephyr-eabi/lib/thumb/v7-m/nofp/libc.a(libc_tinystdio_vfscanf.c.o)
 .rodata.pstr_nfinity
                0x0000000000000000        0x8 /home/romain/zephyr-sdk-0.16.1/arm-zephyr-eabi/bin/../lib/gcc/../../picolibc/arm-zephyr-eabi/lib/thumb/v7-m/nofp/libc.a(libc_tinystdio_vfscanf.c.o)
 .debug_frame   0x0000000000000000       0x9c /home/romain/zephyr-sdk-0.16.1/arm-zephyr-eabi/bin/../lib/gcc/../../picolibc/arm-zephyr-eabi/lib/thumb/v7-m/nofp/libc.a(libc_tinystdio_vfscanf.c.o)
 .text          0x0000000000000000        0x0 /home/romain/zephyr-sdk-0.16.1/arm-zephyr-eabi/bin/../lib/gcc/../../picolibc/arm-zephyr-eabi/lib/thumb/v7-m/nofp/libc.a(libc_tinystdio_dtoa_ryu.c.o)
 .data          0x0000000000000000        0x0 /home/romain/zephyr-sdk-0.16.1/arm-zephyr-eabi/bin/../lib/gcc/../../picolibc/arm-zephyr-eabi/lib/thumb/v7-m/nofp/libc.a(libc_tinystdio_dtoa_ryu.c.o)
 .bss           0x0000000000000000        0x0 /home/romain/zephyr-sdk-0.16.1/arm-zephyr-eabi/bin/../lib/gcc/../../picolibc/arm-zephyr-eabi/lib/thumb/v7-m/nofp/libc.a(libc_tinystdio_dtoa_ryu.c.o)
 .text          0x0000000000000000        0x0 /home/romain/zephyr-sdk-0.16.1/arm-zephyr-eabi/bin/../lib/gcc/../../picolibc/arm-zephyr-eabi/lib/thumb/v7-m/nofp/libc.a(libc_tinystdio_ryu_table.c.o)
 .data          0x0000000000000000        0x0 /home/romain/zephyr-sdk-0.16.1/arm-zephyr-eabi/bin/../lib/gcc/../../picolibc/arm-zephyr-eabi/lib/thumb/v7-m/nofp/libc.a(libc_tinystdio_ryu_table.c.o)
 .bss           0x0000000000000000        0x0 /home/romain/zephyr-sdk-0.16.1/arm-zephyr-eabi/bin/../lib/gcc/../../picolibc/arm-zephyr-eabi/lib/thumb/v7-m/nofp/libc.a(libc_tinystdio_ryu_table.c.o)
 .text          0x0000000000000000        0x0 /home/romain/zephyr-sdk-0.16.1/arm-zephyr-eabi/bin/../lib/gcc/../../picolibc/arm-zephyr-eabi/lib/thumb/v7-m/nofp/libc.a(libc_tinystdio_atod_ryu.c.o)
 .data          0x0000000000000000        0x0 /home/romain/zephyr-sdk-0.16.1/arm-zephyr-eabi/bin/../lib/gcc/../../picolibc/arm-zephyr-eabi/lib/thumb/v7-m/nofp/libc.a(libc_tinystdio_atod_ryu.c.o)
 .bss           0x0000000000000000        0x0 /home/romain/zephyr-sdk-0.16.1/arm-zephyr-eabi/bin/../lib/gcc/../../picolibc/arm-zephyr-eabi/lib/thumb/v7-m/nofp/libc.a(libc_tinystdio_atod_ryu.c.o)
 .text.mulShift64
                0x0000000000000000       0x62 /home/romain/zephyr-sdk-0.16.1/arm-zephyr-eabi/bin/../lib/gcc/../../picolibc/arm-zephyr-eabi/lib/thumb/v7-m/nofp/libc.a(libc_tinystdio_atod_ryu.c.o)
 .text.__atod_engine
                0x0000000000000000      0x1bc /home/romain/zephyr-sdk-0.16.1/arm-zephyr-eabi/bin/../lib/gcc/../../picolibc/arm-zephyr-eabi/lib/thumb/v7-m/nofp/libc.a(libc_tinystdio_atod_ryu.c.o)
 .debug_frame   0x0000000000000000       0x64 /home/romain/zephyr-sdk-0.16.1/arm-zephyr-eabi/bin/../lib/gcc/../../picolibc/arm-zephyr-eabi/lib/thumb/v7-m/nofp/libc.a(libc_tinystdio_atod_ryu.c.o)
 .text          0x0000000000000000        0x0 /home/romain/zephyr-sdk-0.16.1/arm-zephyr-eabi/bin/../lib/gcc/../../picolibc/arm-zephyr-eabi/lib/thumb/v7-m/nofp/libc.a(libc_tinystdio_atof_ryu.c.o)
 .data          0x0000000000000000        0x0 /home/romain/zephyr-sdk-0.16.1/arm-zephyr-eabi/bin/../lib/gcc/../../picolibc/arm-zephyr-eabi/lib/thumb/v7-m/nofp/libc.a(libc_tinystdio_atof_ryu.c.o)
 .bss           0x0000000000000000        0x0 /home/romain/zephyr-sdk-0.16.1/arm-zephyr-eabi/bin/../lib/gcc/../../picolibc/arm-zephyr-eabi/lib/thumb/v7-m/nofp/libc.a(libc_tinystdio_atof_ryu.c.o)
 .text.__atof_engine
                0x0000000000000000      0x11c /home/romain/zephyr-sdk-0.16.1/arm-zephyr-eabi/bin/../lib/gcc/../../picolibc/arm-zephyr-eabi/lib/thumb/v7-m/nofp/libc.a(libc_tinystdio_atof_ryu.c.o)
 .debug_frame   0x0000000000000000       0x34 /home/romain/zephyr-sdk-0.16.1/arm-zephyr-eabi/bin/../lib/gcc/../../picolibc/arm-zephyr-eabi/lib/thumb/v7-m/nofp/libc.a(libc_tinystdio_atof_ryu.c.o)
 .text          0x0000000000000000        0x0 /home/romain/zephyr-sdk-0.16.1/arm-zephyr-eabi/bin/../lib/gcc/../../picolibc/arm-zephyr-eabi/lib/thumb/v7-m/nofp/libc.a(libc_tinystdio_ryu_log2pow5.c.o)
 .data          0x0000000000000000        0x0 /home/romain/zephyr-sdk-0.16.1/arm-zephyr-eabi/bin/../lib/gcc/../../picolibc/arm-zephyr-eabi/lib/thumb/v7-m/nofp/libc.a(libc_tinystdio_ryu_log2pow5.c.o)
 .bss           0x0000000000000000        0x0 /home/romain/zephyr-sdk-0.16.1/arm-zephyr-eabi/bin/../lib/gcc/../../picolibc/arm-zephyr-eabi/lib/thumb/v7-m/nofp/libc.a(libc_tinystdio_ryu_log2pow5.c.o)
 .text.__log2pow5
                0x0000000000000000        0xc /home/romain/zephyr-sdk-0.16.1/arm-zephyr-eabi/bin/../lib/gcc/../../picolibc/arm-zephyr-eabi/lib/thumb/v7-m/nofp/libc.a(libc_tinystdio_ryu_log2pow5.c.o)
 .text.__ceil_log2pow5
                0x0000000000000000       0x10 /home/romain/zephyr-sdk-0.16.1/arm-zephyr-eabi/bin/../lib/gcc/../../picolibc/arm-zephyr-eabi/lib/thumb/v7-m/nofp/libc.a(libc_tinystdio_ryu_log2pow5.c.o)
 .debug_frame   0x0000000000000000       0x30 /home/romain/zephyr-sdk-0.16.1/arm-zephyr-eabi/bin/../lib/gcc/../../picolibc/arm-zephyr-eabi/lib/thumb/v7-m/nofp/libc.a(libc_tinystdio_ryu_log2pow5.c.o)
 .text          0x0000000000000000        0x0 /home/romain/zephyr-sdk-0.16.1/arm-zephyr-eabi/bin/../lib/gcc/../../picolibc/arm-zephyr-eabi/lib/thumb/v7-m/nofp/libc.a(libc_tinystdio_ryu_log10.c.o)
 .data          0x0000000000000000        0x0 /home/romain/zephyr-sdk-0.16.1/arm-zephyr-eabi/bin/../lib/gcc/../../picolibc/arm-zephyr-eabi/lib/thumb/v7-m/nofp/libc.a(libc_tinystdio_ryu_log10.c.o)
 .bss           0x0000000000000000        0x0 /home/romain/zephyr-sdk-0.16.1/arm-zephyr-eabi/bin/../lib/gcc/../../picolibc/arm-zephyr-eabi/lib/thumb/v7-m/nofp/libc.a(libc_tinystdio_ryu_log10.c.o)
 .text          0x0000000000000000        0x0 /home/romain/zephyr-sdk-0.16.1/arm-zephyr-eabi/bin/../lib/gcc/../../picolibc/arm-zephyr-eabi/lib/thumb/v7-m/nofp/libc.a(libc_tinystdio_ryu_pow5bits.c.o)
 .data          0x0000000000000000        0x0 /home/romain/zephyr-sdk-0.16.1/arm-zephyr-eabi/bin/../lib/gcc/../../picolibc/arm-zephyr-eabi/lib/thumb/v7-m/nofp/libc.a(libc_tinystdio_ryu_pow5bits.c.o)
 .bss           0x0000000000000000        0x0 /home/romain/zephyr-sdk-0.16.1/arm-zephyr-eabi/bin/../lib/gcc/../../picolibc/arm-zephyr-eabi/lib/thumb/v7-m/nofp/libc.a(libc_tinystdio_ryu_pow5bits.c.o)
 .text          0x0000000000000000        0x0 /home/romain/zephyr-sdk-0.16.1/arm-zephyr-eabi/bin/../lib/gcc/../../picolibc/arm-zephyr-eabi/lib/thumb/v7-m/nofp/libc.a(libc_tinystdio_ryu_umul128.c.o)
 .data          0x0000000000000000        0x0 /home/romain/zephyr-sdk-0.16.1/arm-zephyr-eabi/bin/../lib/gcc/../../picolibc/arm-zephyr-eabi/lib/thumb/v7-m/nofp/libc.a(libc_tinystdio_ryu_umul128.c.o)
 .bss           0x0000000000000000        0x0 /home/romain/zephyr-sdk-0.16.1/arm-zephyr-eabi/bin/../lib/gcc/../../picolibc/arm-zephyr-eabi/lib/thumb/v7-m/nofp/libc.a(libc_tinystdio_ryu_umul128.c.o)
 .text          0x0000000000000000        0x0 /home/romain/zephyr-sdk-0.16.1/arm-zephyr-eabi/bin/../lib/gcc/../../picolibc/arm-zephyr-eabi/lib/thumb/v7-m/nofp/libc.a(libc_tinystdio_ryu_divpow2.c.o)
 .data          0x0000000000000000        0x0 /home/romain/zephyr-sdk-0.16.1/arm-zephyr-eabi/bin/../lib/gcc/../../picolibc/arm-zephyr-eabi/lib/thumb/v7-m/nofp/libc.a(libc_tinystdio_ryu_divpow2.c.o)
 .bss           0x0000000000000000        0x0 /home/romain/zephyr-sdk-0.16.1/arm-zephyr-eabi/bin/../lib/gcc/../../picolibc/arm-zephyr-eabi/lib/thumb/v7-m/nofp/libc.a(libc_tinystdio_ryu_divpow2.c.o)
 .text.mulShift32
                0x0000000000000000       0x2e /home/romain/zephyr-sdk-0.16.1/arm-zephyr-eabi/bin/../lib/gcc/../../picolibc/arm-zephyr-eabi/lib/thumb/v7-m/nofp/libc.a(libc_tinystdio_ryu_divpow2.c.o)
 .text.__mulPow5InvDivPow2
                0x0000000000000000       0x26 /home/romain/zephyr-sdk-0.16.1/arm-zephyr-eabi/bin/../lib/gcc/../../picolibc/arm-zephyr-eabi/lib/thumb/v7-m/nofp/libc.a(libc_tinystdio_ryu_divpow2.c.o)
 .text.__mulPow5divPow2
                0x0000000000000000       0x20 /home/romain/zephyr-sdk-0.16.1/arm-zephyr-eabi/bin/../lib/gcc/../../picolibc/arm-zephyr-eabi/lib/thumb/v7-m/nofp/libc.a(libc_tinystdio_ryu_divpow2.c.o)
 .debug_frame   0x0000000000000000       0x68 /home/romain/zephyr-sdk-0.16.1/arm-zephyr-eabi/bin/../lib/gcc/../../picolibc/arm-zephyr-eabi/lib/thumb/v7-m/nofp/libc.a(libc_tinystdio_ryu_divpow2.c.o)
 .text          0x0000000000000000        0x0 /home/romain/zephyr-sdk-0.16.1/arm-zephyr-eabi/bin/../lib/gcc/../../picolibc/arm-zephyr-eabi/lib/thumb/v7-m/nofp/libc.a(libm_math_sf_atan2.c.o)
 .data          0x0000000000000000        0x0 /home/romain/zephyr-sdk-0.16.1/arm-zephyr-eabi/bin/../lib/gcc/../../picolibc/arm-zephyr-eabi/lib/thumb/v7-m/nofp/libc.a(libm_math_sf_atan2.c.o)
 .bss           0x0000000000000000        0x0 /home/romain/zephyr-sdk-0.16.1/arm-zephyr-eabi/bin/../lib/gcc/../../picolibc/arm-zephyr-eabi/lib/thumb/v7-m/nofp/libc.a(libm_math_sf_atan2.c.o)
 .text          0x0000000000000000        0x0 /home/romain/zephyr-sdk-0.16.1/arm-zephyr-eabi/bin/../lib/gcc/../../picolibc/arm-zephyr-eabi/lib/thumb/v7-m/nofp/libc.a(libm_math_sf_fmod.c.o)
 .data          0x0000000000000000        0x0 /home/romain/zephyr-sdk-0.16.1/arm-zephyr-eabi/bin/../lib/gcc/../../picolibc/arm-zephyr-eabi/lib/thumb/v7-m/nofp/libc.a(libm_math_sf_fmod.c.o)
 .bss           0x0000000000000000        0x0 /home/romain/zephyr-sdk-0.16.1/arm-zephyr-eabi/bin/../lib/gcc/../../picolibc/arm-zephyr-eabi/lib/thumb/v7-m/nofp/libc.a(libm_math_sf_fmod.c.o)
 .text          0x0000000000000000        0x0 /home/romain/zephyr-sdk-0.16.1/arm-zephyr-eabi/bin/../lib/gcc/../../picolibc/arm-zephyr-eabi/lib/thumb/v7-m/nofp/libc.a(libm_common_sf_fpclassify.c.o)
 .data          0x0000000000000000        0x0 /home/romain/zephyr-sdk-0.16.1/arm-zephyr-eabi/bin/../lib/gcc/../../picolibc/arm-zephyr-eabi/lib/thumb/v7-m/nofp/libc.a(libm_common_sf_fpclassify.c.o)
 .bss           0x0000000000000000        0x0 /home/romain/zephyr-sdk-0.16.1/arm-zephyr-eabi/bin/../lib/gcc/../../picolibc/arm-zephyr-eabi/lib/thumb/v7-m/nofp/libc.a(libm_common_sf_fpclassify.c.o)
 .text          0x0000000000000000        0x0 /home/romain/zephyr-sdk-0.16.1/arm-zephyr-eabi/bin/../lib/gcc/../../picolibc/arm-zephyr-eabi/lib/thumb/v7-m/nofp/libc.a(libm_common_math_errf_invalidf.c.o)
 .data          0x0000000000000000        0x0 /home/romain/zephyr-sdk-0.16.1/arm-zephyr-eabi/bin/../lib/gcc/../../picolibc/arm-zephyr-eabi/lib/thumb/v7-m/nofp/libc.a(libm_common_math_errf_invalidf.c.o)
 .bss           0x0000000000000000        0x0 /home/romain/zephyr-sdk-0.16.1/arm-zephyr-eabi/bin/../lib/gcc/../../picolibc/arm-zephyr-eabi/lib/thumb/v7-m/nofp/libc.a(libm_common_math_errf_invalidf.c.o)
 .text          0x0000000000000000       0x14 /home/romain/zephyr-sdk-0.16.1/arm-zephyr-eabi/bin/../lib/gcc/../../picolibc/arm-zephyr-eabi/lib/thumb/v7-m/nofp/libc.a(strcmp.S.o)
 .data          0x0000000000000000        0x0 /home/romain/zephyr-sdk-0.16.1/arm-zephyr-eabi/bin/../lib/gcc/../../picolibc/arm-zephyr-eabi/lib/thumb/v7-m/nofp/libc.a(strcmp.S.o)
 .bss           0x0000000000000000        0x0 /home/romain/zephyr-sdk-0.16.1/arm-zephyr-eabi/bin/../lib/gcc/../../picolibc/arm-zephyr-eabi/lib/thumb/v7-m/nofp/libc.a(strcmp.S.o)
 .debug_frame   0x0000000000000000       0x20 /home/romain/zephyr-sdk-0.16.1/arm-zephyr-eabi/bin/../lib/gcc/../../picolibc/arm-zephyr-eabi/lib/thumb/v7-m/nofp/libc.a(strcmp.S.o)
 .text          0x0000000000000000        0x0 /home/romain/zephyr-sdk-0.16.1/arm-zephyr-eabi/bin/../lib/gcc/../../picolibc/arm-zephyr-eabi/lib/thumb/v7-m/nofp/libc.a(memcpy.c.o)
 .data          0x0000000000000000        0x0 /home/romain/zephyr-sdk-0.16.1/arm-zephyr-eabi/bin/../lib/gcc/../../picolibc/arm-zephyr-eabi/lib/thumb/v7-m/nofp/libc.a(memcpy.c.o)
 .bss           0x0000000000000000        0x0 /home/romain/zephyr-sdk-0.16.1/arm-zephyr-eabi/bin/../lib/gcc/../../picolibc/arm-zephyr-eabi/lib/thumb/v7-m/nofp/libc.a(memcpy.c.o)
 .text          0x0000000000000000        0x0 /home/romain/zephyr-sdk-0.16.1/arm-zephyr-eabi/bin/../lib/gcc/../../picolibc/arm-zephyr-eabi/lib/thumb/v7-m/nofp/libc.a(memset.c.o)
 .data          0x0000000000000000        0x0 /home/romain/zephyr-sdk-0.16.1/arm-zephyr-eabi/bin/../lib/gcc/../../picolibc/arm-zephyr-eabi/lib/thumb/v7-m/nofp/libc.a(memset.c.o)
 .bss           0x0000000000000000        0x0 /home/romain/zephyr-sdk-0.16.1/arm-zephyr-eabi/bin/../lib/gcc/../../picolibc/arm-zephyr-eabi/lib/thumb/v7-m/nofp/libc.a(memset.c.o)
 .data          0x0000000000000000        0x0 /home/romain/zephyr-sdk-0.16.1/arm-zephyr-eabi/bin/../lib/gcc/../../picolibc/arm-zephyr-eabi/lib/thumb/v7-m/nofp/libc.a(strlen.S.o)
 .bss           0x0000000000000000        0x0 /home/romain/zephyr-sdk-0.16.1/arm-zephyr-eabi/bin/../lib/gcc/../../picolibc/arm-zephyr-eabi/lib/thumb/v7-m/nofp/libc.a(strlen.S.o)
 .text          0x0000000000000000        0x0 /home/romain/zephyr-sdk-0.16.1/arm-zephyr-eabi/bin/../lib/gcc/../../picolibc/arm-zephyr-eabi/lib/thumb/v7-m/nofp/libc.a(libc_string_strchr.c.o)
 .data          0x0000000000000000        0x0 /home/romain/zephyr-sdk-0.16.1/arm-zephyr-eabi/bin/../lib/gcc/../../picolibc/arm-zephyr-eabi/lib/thumb/v7-m/nofp/libc.a(libc_string_strchr.c.o)
 .bss           0x0000000000000000        0x0 /home/romain/zephyr-sdk-0.16.1/arm-zephyr-eabi/bin/../lib/gcc/../../picolibc/arm-zephyr-eabi/lib/thumb/v7-m/nofp/libc.a(libc_string_strchr.c.o)
 .text.strchr   0x0000000000000000       0x1a /home/romain/zephyr-sdk-0.16.1/arm-zephyr-eabi/bin/../lib/gcc/../../picolibc/arm-zephyr-eabi/lib/thumb/v7-m/nofp/libc.a(libc_string_strchr.c.o)
 .debug_frame   0x0000000000000000       0x20 /home/romain/zephyr-sdk-0.16.1/arm-zephyr-eabi/bin/../lib/gcc/../../picolibc/arm-zephyr-eabi/lib/thumb/v7-m/nofp/libc.a(libc_string_strchr.c.o)
 .text          0x0000000000000000        0x0 /home/romain/zephyr-sdk-0.16.1/arm-zephyr-eabi/bin/../lib/gcc/../../picolibc/arm-zephyr-eabi/lib/thumb/v7-m/nofp/libc.a(libc_tinystdio_fgetc.c.o)
 .data          0x0000000000000000        0x0 /home/romain/zephyr-sdk-0.16.1/arm-zephyr-eabi/bin/../lib/gcc/../../picolibc/arm-zephyr-eabi/lib/thumb/v7-m/nofp/libc.a(libc_tinystdio_fgetc.c.o)
 .bss           0x0000000000000000        0x0 /home/romain/zephyr-sdk-0.16.1/arm-zephyr-eabi/bin/../lib/gcc/../../picolibc/arm-zephyr-eabi/lib/thumb/v7-m/nofp/libc.a(libc_tinystdio_fgetc.c.o)
 .text.fgetc    0x0000000000000000       0x40 /home/romain/zephyr-sdk-0.16.1/arm-zephyr-eabi/bin/../lib/gcc/../../picolibc/arm-zephyr-eabi/lib/thumb/v7-m/nofp/libc.a(libc_tinystdio_fgetc.c.o)
 .debug_frame   0x0000000000000000       0x28 /home/romain/zephyr-sdk-0.16.1/arm-zephyr-eabi/bin/../lib/gcc/../../picolibc/arm-zephyr-eabi/lib/thumb/v7-m/nofp/libc.a(libc_tinystdio_fgetc.c.o)
 .text          0x0000000000000000        0x0 /home/romain/zephyr-sdk-0.16.1/arm-zephyr-eabi/bin/../lib/gcc/../../picolibc/arm-zephyr-eabi/lib/thumb/v7-m/nofp/libc.a(libc_tinystdio_filestrput.c.o)
 .data          0x0000000000000000        0x0 /home/romain/zephyr-sdk-0.16.1/arm-zephyr-eabi/bin/../lib/gcc/../../picolibc/arm-zephyr-eabi/lib/thumb/v7-m/nofp/libc.a(libc_tinystdio_filestrput.c.o)
 .bss           0x0000000000000000        0x0 /home/romain/zephyr-sdk-0.16.1/arm-zephyr-eabi/bin/../lib/gcc/../../picolibc/arm-zephyr-eabi/lib/thumb/v7-m/nofp/libc.a(libc_tinystdio_filestrput.c.o)
 .text          0x0000000000000000        0x0 /home/romain/zephyr-sdk-0.16.1/arm-zephyr-eabi/bin/../lib/gcc/../../picolibc/arm-zephyr-eabi/lib/thumb/v7-m/nofp/libc.a(libc_tinystdio_ungetc.c.o)
 .data          0x0000000000000000        0x0 /home/romain/zephyr-sdk-0.16.1/arm-zephyr-eabi/bin/../lib/gcc/../../picolibc/arm-zephyr-eabi/lib/thumb/v7-m/nofp/libc.a(libc_tinystdio_ungetc.c.o)
 .bss           0x0000000000000000        0x0 /home/romain/zephyr-sdk-0.16.1/arm-zephyr-eabi/bin/../lib/gcc/../../picolibc/arm-zephyr-eabi/lib/thumb/v7-m/nofp/libc.a(libc_tinystdio_ungetc.c.o)
 .text.ungetc   0x0000000000000000       0x3a /home/romain/zephyr-sdk-0.16.1/arm-zephyr-eabi/bin/../lib/gcc/../../picolibc/arm-zephyr-eabi/lib/thumb/v7-m/nofp/libc.a(libc_tinystdio_ungetc.c.o)
 .debug_frame   0x0000000000000000       0x20 /home/romain/zephyr-sdk-0.16.1/arm-zephyr-eabi/bin/../lib/gcc/../../picolibc/arm-zephyr-eabi/lib/thumb/v7-m/nofp/libc.a(libc_tinystdio_ungetc.c.o)
 .text          0x0000000000000000        0x0 /home/romain/zephyr-sdk-0.16.1/arm-zephyr-eabi/bin/../lib/gcc/../../picolibc/arm-zephyr-eabi/lib/thumb/v7-m/nofp/libc.a(libm_math_sf_atan.c.o)
 .data          0x0000000000000000        0x0 /home/romain/zephyr-sdk-0.16.1/arm-zephyr-eabi/bin/../lib/gcc/../../picolibc/arm-zephyr-eabi/lib/thumb/v7-m/nofp/libc.a(libm_math_sf_atan.c.o)
 .bss           0x0000000000000000        0x0 /home/romain/zephyr-sdk-0.16.1/arm-zephyr-eabi/bin/../lib/gcc/../../picolibc/arm-zephyr-eabi/lib/thumb/v7-m/nofp/libc.a(libm_math_sf_atan.c.o)

Memory Configuration

Name             Origin             Length             Attributes
FLASH            0x0000000008000000 0x0000000000020000 xr
RAM              0x0000000020000000 0x0000000000005000 xw
IDT_LIST         0x00000000ffff7fff 0x0000000000008000 xw
*default*        0x0000000000000000 0xffffffffffffffff

Linker script and memory map

                0x0000000008004df8                vfprintf = __d_vfprintf
                0x0000000000000000                vfscanf = __d_vfscanf
LOAD zephyr/CMakeFiles/zephyr_pre0.dir/misc/empty_file.c.obj
LOAD zephyr/CMakeFiles/offsets.dir/./arch/arm/core/offsets/offsets.c.obj
LOAD app/libapp.a
LOAD zephyr/libzephyr.a
LOAD zephyr/arch/common/libarch__common.a
LOAD zephyr/arch/arch/arm/core/libarch__arm__core.a
LOAD zephyr/arch/arch/arm/core/cortex_m/libarch__arm__core__cortex_m.a
LOAD zephyr/lib/libc/picolibc/liblib__libc__picolibc.a
LOAD zephyr/lib/libc/common/liblib__libc__common.a
LOAD zephyr/drivers/interrupt_controller/libdrivers__interrupt_controller.a
LOAD zephyr/drivers/clock_control/libdrivers__clock_control.a
LOAD zephyr/drivers/console/libdrivers__console.a
LOAD zephyr/drivers/gpio/libdrivers__gpio.a
LOAD zephyr/drivers/i2c/libdrivers__i2c.a
LOAD zephyr/drivers/pinctrl/libdrivers__pinctrl.a
LOAD zephyr/drivers/reset/libdrivers__reset.a
LOAD zephyr/drivers/serial/libdrivers__serial.a
LOAD zephyr/drivers/timer/libdrivers__timer.a
LOAD modules/stm32/stm32cube/lib..__modules__hal__stm32__stm32cube.a
LOAD zephyr/kernel/libkernel.a
LOAD /home/romain/zephyr-sdk-0.16.1/arm-zephyr-eabi/bin/../lib/gcc/arm-zephyr-eabi/12.2.0/thumb/v7-m/nofp/libgcc.a
LOAD zephyr/arch/common/libisr_tables.a
LOAD /home/romain/zephyr-sdk-0.16.1/arm-zephyr-eabi/bin/../lib/gcc/../../picolibc/arm-zephyr-eabi/lib/thumb/v7-m/nofp/libc.a
LOAD /home/romain/zephyr-sdk-0.16.1/arm-zephyr-eabi/bin/../lib/gcc/arm-zephyr-eabi/12.2.0/thumb/v7-m/nofp/libgcc.a
                0x0000000000000004                _region_min_align = 0x4

.rel.plt        0x0000000008000000        0x0
 *(SORT_BY_ALIGNMENT(.rel.plt))
                [!provide]                        PROVIDE (__rel_iplt_start = .)
 *(SORT_BY_ALIGNMENT(.rel.iplt))
 .rel.iplt      0x0000000008000000        0x0 app/libapp.a(main.c.obj)
                [!provide]                        PROVIDE (__rel_iplt_end = .)

.rela.plt       0x0000000000000000        0x0
 *(SORT_BY_ALIGNMENT(.rela.plt))
                [!provide]                        PROVIDE (__rela_iplt_start = .)
 *(SORT_BY_ALIGNMENT(.rela.iplt))
                [!provide]                        PROVIDE (__rela_iplt_end = .)

.rel.dyn
 *(SORT_BY_ALIGNMENT(.rel.*))

.rela.dyn
 *(SORT_BY_ALIGNMENT(.rela.*))

/DISCARD/
 *(SORT_BY_ALIGNMENT(.plt))

/DISCARD/
 *(SORT_BY_ALIGNMENT(.iplt))
                0x0000000008000000                __rom_region_start = 0x8000000

rom_start       0x0000000008000000       0xec
                0x0000000008000000                __rom_start_address = .
 FILL mask 0x00
                0x0000000008000000                . = (. + (0x0 - (. - __rom_start_address)))
                0x0000000008000000                . = ALIGN (0x4)
                0x0000000008000000                . = ALIGN (0x80)
                0x0000000008000000                . = ALIGN (0x100)
                0x0000000008000000                _vector_start = .
 *(SORT_BY_ALIGNMENT(.exc_vector_table))
 *(SORT_BY_ALIGNMENT(.exc_vector_table.*))
 .exc_vector_table._vector_table_section
                0x0000000008000000       0x40 zephyr/arch/arch/arm/core/cortex_m/libarch__arm__core__cortex_m.a(vector_table.S.obj)
                0x0000000008000000                _vector_table
 *(SORT_BY_ALIGNMENT(.vectors))
                0x00000000080000ec                _vector_end = .
                0x0000000008000040                . = ALIGN (0x4)
 *(SORT_BY_ALIGNMENT(.gnu.linkonce.irq_vector_table*))
 .gnu.linkonce.irq_vector_table
                0x0000000008000040       0xac zephyr/arch/common/libisr_tables.a(isr_tables.c.obj)
                0x0000000008000040                _irq_vector_table
                0x00000000080000ec                _vector_end = .

text            0x00000000080000ec     0x7fac
                0x00000000080000ec                __text_region_start = .
 *(SORT_BY_ALIGNMENT(.text))
 .text          0x00000000080000ec      0x378 /home/romain/zephyr-sdk-0.16.1/arm-zephyr-eabi/bin/../lib/gcc/arm-zephyr-eabi/12.2.0/thumb/v7-m/nofp/libgcc.a(_arm_addsubdf3.o)
                0x00000000080000ec                __aeabi_drsub
                0x00000000080000f4                __aeabi_dsub
                0x00000000080000f4                __subdf3
                0x00000000080000f8                __adddf3
                0x00000000080000f8                __aeabi_dadd
                0x0000000008000370                __aeabi_ui2d
                0x0000000008000370                __floatunsidf
                0x0000000008000390                __floatsidf
                0x0000000008000390                __aeabi_i2d
                0x00000000080003b4                __extendsfdf2
                0x00000000080003b4                __aeabi_f2d
                0x00000000080003f8                __aeabi_ul2d
                0x00000000080003f8                __floatundidf
                0x0000000008000408                __floatdidf
                0x0000000008000408                __aeabi_l2d
 .text          0x0000000008000464      0x21c /home/romain/zephyr-sdk-0.16.1/arm-zephyr-eabi/bin/../lib/gcc/arm-zephyr-eabi/12.2.0/thumb/v7-m/nofp/libgcc.a(_arm_addsubsf3.o)
                0x0000000008000464                __aeabi_frsub
                0x000000000800046c                __subsf3
                0x000000000800046c                __aeabi_fsub
                0x0000000008000470                __aeabi_fadd
                0x0000000008000470                __addsf3
                0x00000000080005d0                __aeabi_ui2f
                0x00000000080005d0                __floatunsisf
                0x00000000080005d8                __aeabi_i2f
                0x00000000080005d8                __floatsisf
                0x00000000080005f4                __floatundisf
                0x00000000080005f4                __aeabi_ul2f
                0x0000000008000604                __floatdisf
                0x0000000008000604                __aeabi_l2f
 .text          0x0000000008000680      0x2a0 /home/romain/zephyr-sdk-0.16.1/arm-zephyr-eabi/bin/../lib/gcc/arm-zephyr-eabi/12.2.0/thumb/v7-m/nofp/libgcc.a(_arm_muldivsf3.o)
                0x0000000008000680                __mulsf3
                0x0000000008000680                __aeabi_fmul
                0x00000000080007e8                __divsf3
                0x00000000080007e8                __aeabi_fdiv
 .text          0x0000000008000920       0xec /home/romain/zephyr-sdk-0.16.1/arm-zephyr-eabi/bin/../lib/gcc/arm-zephyr-eabi/12.2.0/thumb/v7-m/nofp/libgcc.a(_arm_cmpsf2.o)
                0x0000000008000920                __gtsf2
                0x0000000008000920                __gesf2
                0x0000000008000928                __lesf2
                0x0000000008000928                __ltsf2
                0x0000000008000930                __nesf2
                0x0000000008000930                __eqsf2
                0x0000000008000930                __cmpsf2
                0x0000000008000990                __aeabi_cfrcmple
                0x0000000008000998                __aeabi_cfcmple
                0x0000000008000998                __aeabi_cfcmpeq
                0x00000000080009a8                __aeabi_fcmpeq
                0x00000000080009bc                __aeabi_fcmplt
                0x00000000080009d0                __aeabi_fcmple
                0x00000000080009e4                __aeabi_fcmpge
                0x00000000080009f8                __aeabi_fcmpgt
 .text          0x0000000008000a0c       0x4c /home/romain/zephyr-sdk-0.16.1/arm-zephyr-eabi/bin/../lib/gcc/arm-zephyr-eabi/12.2.0/thumb/v7-m/nofp/libgcc.a(_arm_fixsfsi.o)
                0x0000000008000a0c                __fixsfsi
                0x0000000008000a0c                __aeabi_f2iz
 .text          0x0000000008000a58       0x30 /home/romain/zephyr-sdk-0.16.1/arm-zephyr-eabi/bin/../lib/gcc/arm-zephyr-eabi/12.2.0/thumb/v7-m/nofp/libgcc.a(_aeabi_uldivmod.o)
                0x0000000008000a58                __aeabi_uldivmod
 .text          0x0000000008000a88        0x4 /home/romain/zephyr-sdk-0.16.1/arm-zephyr-eabi/bin/../lib/gcc/arm-zephyr-eabi/12.2.0/thumb/v7-m/nofp/libgcc.a(_dvmd_tls.o)
                0x0000000008000a88                __aeabi_ldiv0
                0x0000000008000a88                __aeabi_idiv0
 .text          0x0000000008000a8c      0x2a0 /home/romain/zephyr-sdk-0.16.1/arm-zephyr-eabi/bin/../lib/gcc/arm-zephyr-eabi/12.2.0/thumb/v7-m/nofp/libgcc.a(_udivmoddi4.o)
                0x0000000008000a8c                __udivmoddi4
 .text          0x0000000008000d2c       0x10 /home/romain/zephyr-sdk-0.16.1/arm-zephyr-eabi/bin/../lib/gcc/../../picolibc/arm-zephyr-eabi/lib/thumb/v7-m/nofp/libc.a(strlen.S.o)
                0x0000000008000d2c                strlen
 *(SORT_BY_ALIGNMENT(.text.*))
 .text.k_mutex_lock.constprop.0.isra.0
                0x0000000008000d3c       0x10 app/libapp.a(main.c.obj)
 .text.k_mutex_unlock.constprop.0.isra.0
                0x0000000008000d4c        0xc app/libapp.a(main.c.obj)
 .text.thread_pid_fn
                0x0000000008000d58       0xe4 app/libapp.a(main.c.obj)
                0x0000000008000d58                thread_pid_fn
 .text.thread_capteurs_fn
                0x0000000008000e3c       0xac app/libapp.a(main.c.obj)
                0x0000000008000e3c                thread_capteurs_fn
 .text.main     0x0000000008000ee8       0xa4 app/libapp.a(main.c.obj)
                0x0000000008000ee8                main
 .text.moteur_set_vitesse
                0x0000000008000f8c       0x5c app/libapp.a(moteur.c.obj)
                0x0000000008000f8c                moteur_set_vitesse
 .text.moteur_init
                0x0000000008000fe8       0x60 app/libapp.a(moteur.c.obj)
                0x0000000008000fe8                moteur_init
 .text.codeur_handler
                0x0000000008001048       0x58 app/libapp.a(codeur.c.obj)
                0x0000000008001048                codeur_handler
 .text.z_impl_gpio_pin_configure.constprop.0.isra.0
                0x00000000080010a0       0x20 app/libapp.a(codeur.c.obj)
 .text.codeur_init
                0x00000000080010c0       0x64 app/libapp.a(codeur.c.obj)
                0x00000000080010c0                codeur_init
 .text.codeur_get_ticks
                0x0000000008001124       0x14 app/libapp.a(codeur.c.obj)
                0x0000000008001124                codeur_get_ticks
 .text.boussole_init
                0x0000000008001138       0x6c app/libapp.a(boussole.c.obj)
                0x0000000008001138                boussole_init
 .text.boussole_get_angle
                0x00000000080011a4       0xb8 app/libapp.a(boussole.c.obj)
                0x00000000080011a4                boussole_get_angle
 .text.pid_calculer_commande
                0x000000000800125c       0xe0 app/libapp.a(pid.c.obj)
                0x000000000800125c                pid_calculer_commande
 .text.cbvprintf_package
                0x000000000800133c      0x3a4 zephyr/libzephyr.a(cbprintf_packaged.c.obj)
                0x000000000800133c                cbvprintf_package
 .text.cbprintf_package_convert
                0x00000000080016e0      0x3c8 zephyr/libzephyr.a(cbprintf_packaged.c.obj)
                0x00000000080016e0                cbprintf_package_convert
 .text.__printk_hook_install
                0x0000000008001aa8        0xc zephyr/libzephyr.a(printk.c.obj)
                0x0000000008001aa8                __printk_hook_install
 .text.z_thread_entry
                0x0000000008001ab4       0x34 zephyr/libzephyr.a(thread_entry.c.obj)
                0x0000000008001ab4                z_thread_entry
 .text.st_stm32_common_config
                0x0000000008001ae8       0x14 zephyr/libzephyr.a(soc_config.c.obj)
 .text.stm32f1_init
                0x0000000008001afc       0x20 zephyr/libzephyr.a(soc.c.obj)
 .text.activate_foreach_backend
                0x0000000008001b1c       0x64 zephyr/libzephyr.a(log_core.c.obj)
 .text.enable_logger
                0x0000000008001b80       0x5c zephyr/libzephyr.a(log_core.c.obj)
 .text.log_process_thread_timer_expiry_fn
                0x0000000008001bdc        0xc zephyr/libzephyr.a(log_core.c.obj)
 .text.z_log_init
                0x0000000008001be8       0x94 zephyr/libzephyr.a(log_core.c.obj)
 .text.log_format_func_t_get
                0x0000000008001c7c        0xc zephyr/libzephyr.a(log_core.c.obj)
                0x0000000008001c7c                log_format_func_t_get
 .text.log_set_timestamp_func
                0x0000000008001c88       0x20 zephyr/libzephyr.a(log_core.c.obj)
                0x0000000008001c88                log_set_timestamp_func
 .text.z_log_notify_backend_enabled
                0x0000000008001ca8       0x1c zephyr/libzephyr.a(log_core.c.obj)
                0x0000000008001ca8                z_log_notify_backend_enabled
 .text.z_log_dropped
                0x0000000008001cc4       0x44 zephyr/libzephyr.a(log_core.c.obj)
                0x0000000008001cc4                z_log_dropped
 .text.z_log_dropped_read_and_clear
                0x0000000008001d08       0x20 zephyr/libzephyr.a(log_core.c.obj)
                0x0000000008001d08                z_log_dropped_read_and_clear
 .text.dropped_notify
                0x0000000008001d28       0x30 zephyr/libzephyr.a(log_core.c.obj)
                0x0000000008001d28                dropped_notify
 .text.z_log_msg_init
                0x0000000008001d58       0x20 zephyr/libzephyr.a(log_core.c.obj)
                0x0000000008001d58                z_log_msg_init
 .text.log_core_init
                0x0000000008001d78       0x50 zephyr/libzephyr.a(log_core.c.obj)
                0x0000000008001d78                log_core_init
 .text.z_log_msg_alloc
                0x0000000008001dc8       0x10 zephyr/libzephyr.a(log_core.c.obj)
                0x0000000008001dc8                z_log_msg_alloc
 .text.z_log_msg_local_claim
                0x0000000008001dd8        0xc zephyr/libzephyr.a(log_core.c.obj)
                0x0000000008001dd8                z_log_msg_local_claim
 .text.z_log_msg_free
                0x0000000008001de4       0x10 zephyr/libzephyr.a(log_core.c.obj)
                0x0000000008001de4                z_log_msg_free
 .text.z_log_msg_pending
                0x0000000008001df4        0xc zephyr/libzephyr.a(log_core.c.obj)
                0x0000000008001df4                z_log_msg_pending
 .text.z_impl_log_process
                0x0000000008001e00       0xb0 zephyr/libzephyr.a(log_core.c.obj)
                0x0000000008001e00                z_impl_log_process
 .text.z_impl_log_panic
                0x0000000008001eb0       0x44 zephyr/libzephyr.a(log_core.c.obj)
                0x0000000008001eb0                z_impl_log_panic
 .text.log_process_thread_func
                0x0000000008001ef4       0xa4 zephyr/libzephyr.a(log_core.c.obj)
 .text.z_log_msg_post_finalize
                0x0000000008001f98       0x78 zephyr/libzephyr.a(log_core.c.obj)
 .text.z_log_msg_commit
                0x0000000008002010       0x24 zephyr/libzephyr.a(log_core.c.obj)
                0x0000000008002010                z_log_msg_commit
 .text.log_source_name_get
                0x0000000008002034       0x1c zephyr/libzephyr.a(log_mgmt.c.obj)
                0x0000000008002034                log_source_name_get
 .text.z_impl_z_log_msg_static_create
                0x0000000008002050      0x108 zephyr/libzephyr.a(log_msg.c.obj)
                0x0000000008002050                z_impl_z_log_msg_static_create
 .text.z_log_msg_runtime_vcreate
                0x0000000008002158       0xa0 zephyr/libzephyr.a(log_msg.c.obj)
                0x0000000008002158                z_log_msg_runtime_vcreate
 .text.log_msg_get_source_id
                0x00000000080021f8       0x18 zephyr/libzephyr.a(log_msg.c.obj)
                0x00000000080021f8                log_msg_get_source_id
 .text.print_formatted
                0x0000000008002210       0x24 zephyr/libzephyr.a(log_output.c.obj)
 .text.newline_print
                0x0000000008002234       0x1c zephyr/libzephyr.a(log_output.c.obj)
 .text.log_output_process
                0x0000000008002250      0x2dc zephyr/libzephyr.a(log_output.c.obj)
                0x0000000008002250                log_output_process
 .text.log_output_dropped_process
                0x000000000800252c       0x58 zephyr/libzephyr.a(log_output.c.obj)
                0x000000000800252c                log_output_dropped_process
 .text.log_output_timestamp_freq_set
                0x0000000008002584       0x2c zephyr/libzephyr.a(log_output.c.obj)
                0x0000000008002584                log_output_timestamp_freq_set
 .text.char_out
                0x00000000080025b0       0x24 zephyr/libzephyr.a(log_backend_uart.c.obj)
 .text.z_arm_fatal_error
                0x00000000080025d4       0xb4 zephyr/arch/arch/arm/core/libarch__arm__core.a(fatal.c.obj)
                0x00000000080025d4                z_arm_fatal_error
 .text.z_arm_nmi
                0x0000000008002688       0x14 zephyr/arch/arch/arm/core/libarch__arm__core.a(nmi.c.obj)
                0x0000000008002688                z_arm_nmi
 .text.z_SysNmiOnReset
                0x000000000800269c        0x8 zephyr/arch/arch/arm/core/libarch__arm__core.a(nmi_on_reset.S.obj)
                0x000000000800269c                z_SysNmiOnReset
 .text.arch_tls_stack_setup
                0x00000000080026a4       0x40 zephyr/arch/arch/arm/core/libarch__arm__core.a(tls.c.obj)
                0x00000000080026a4                arch_tls_stack_setup
 .text._HandlerModeExit
                0x00000000080026e4       0x20 zephyr/arch/arch/arm/core/cortex_m/libarch__arm__core__cortex_m.a(exc_exit.c.obj)
                0x00000000080026e4                z_arm_exc_exit
                0x00000000080026e4                z_arm_int_exit
 .text.mem_manage_fault.constprop.0
                0x0000000008002704       0xac zephyr/arch/arch/arm/core/cortex_m/libarch__arm__core__cortex_m.a(fault.c.obj)
 .text.usage_fault.constprop.0
                0x00000000080027b0       0xa8 zephyr/arch/arch/arm/core/cortex_m/libarch__arm__core__cortex_m.a(fault.c.obj)
 .text.bus_fault.constprop.0
                0x0000000008002858       0xb8 zephyr/arch/arch/arm/core/cortex_m/libarch__arm__core__cortex_m.a(fault.c.obj)
 .text.z_arm_fault
                0x0000000008002910      0x1d0 zephyr/arch/arch/arm/core/cortex_m/libarch__arm__core__cortex_m.a(fault.c.obj)
                0x0000000008002910                z_arm_fault
 .text.z_arm_fault_init
                0x0000000008002ae0       0x10 zephyr/arch/arch/arm/core/cortex_m/libarch__arm__core__cortex_m.a(fault.c.obj)
                0x0000000008002ae0                z_arm_fault_init
 .text.__fault  0x0000000008002af0       0x14 zephyr/arch/arch/arm/core/cortex_m/libarch__arm__core__cortex_m.a(fault_s.S.obj)
                0x0000000008002af0                z_arm_bus_fault
                0x0000000008002af0                z_arm_usage_fault
                0x0000000008002af0                z_arm_mpu_fault
                0x0000000008002af0                z_arm_exc_spurious
                0x0000000008002af0                z_arm_debug_monitor
                0x0000000008002af0                z_arm_hard_fault
 .text._reset_section
                0x0000000008002b04       0x2c zephyr/arch/arch/arm/core/cortex_m/libarch__arm__core__cortex_m.a(reset.S.obj)
                0x0000000008002b04                z_arm_reset
                0x0000000008002b04                __start
 .text.z_impl_k_thread_abort
                0x0000000008002b30       0x2c zephyr/arch/arch/arm/core/cortex_m/libarch__arm__core__cortex_m.a(thread_abort.c.obj)
                0x0000000008002b30                z_impl_k_thread_abort
 .text.arch_swap
                0x0000000008002b5c       0x30 zephyr/arch/arch/arm/core/cortex_m/libarch__arm__core__cortex_m.a(swap.c.obj)
                0x0000000008002b5c                arch_swap
 .text.z_arm_pendsv
                0x0000000008002b8c       0x58 zephyr/arch/arch/arm/core/cortex_m/libarch__arm__core__cortex_m.a(swap_helper.S.obj)
                0x0000000008002b8c                z_arm_pendsv
 .text.z_arm_svc
                0x0000000008002be4       0x20 zephyr/arch/arch/arm/core/cortex_m/libarch__arm__core__cortex_m.a(swap_helper.S.obj)
                0x0000000008002be4                z_arm_svc
 .text.arch_irq_enable
                0x0000000008002c04       0x1c zephyr/arch/arch/arm/core/cortex_m/libarch__arm__core__cortex_m.a(irq_manage.c.obj)
                0x0000000008002c04                arch_irq_enable
 .text.z_arm_irq_priority_set
                0x0000000008002c20       0x2c zephyr/arch/arch/arm/core/cortex_m/libarch__arm__core__cortex_m.a(irq_manage.c.obj)
                0x0000000008002c20                z_arm_irq_priority_set
 .text.z_prep_c
                0x0000000008002c4c       0x30 zephyr/arch/arch/arm/core/cortex_m/libarch__arm__core__cortex_m.a(prep_c.c.obj)
                0x0000000008002c4c                z_prep_c
 .text.arch_new_thread
                0x0000000008002c7c       0x38 zephyr/arch/arch/arm/core/cortex_m/libarch__arm__core__cortex_m.a(thread.c.obj)
                0x0000000008002c7c                arch_new_thread
 .text.arch_switch_to_main_thread
                0x0000000008002cb4       0x40 zephyr/arch/arch/arm/core/cortex_m/libarch__arm__core__cortex_m.a(thread.c.obj)
                0x0000000008002cb4                arch_switch_to_main_thread
 .text.z_arm_cpu_idle_init
                0x0000000008002cf4        0xc zephyr/arch/arch/arm/core/cortex_m/libarch__arm__core__cortex_m.a(cpu_idle.c.obj)
                0x0000000008002cf4                z_arm_cpu_idle_init
 .text.z_arm_interrupt_init
                0x0000000008002d00       0x18 zephyr/arch/arch/arm/core/cortex_m/libarch__arm__core__cortex_m.a(irq_init.c.obj)
                0x0000000008002d00                z_arm_interrupt_init
 .text._isr_wrapper
                0x0000000008002d18       0x24 zephyr/arch/arch/arm/core/cortex_m/libarch__arm__core__cortex_m.a(isr_wrapper.c.obj)
                0x0000000008002d18                _isr_wrapper
 .text.z_impl_zephyr_fputc
                0x0000000008002d3c       0x10 zephyr/lib/libc/picolibc/liblib__libc__picolibc.a(libc-hooks.c.obj)
                0x0000000008002d3c                z_impl_zephyr_fputc
 .text.__stdout_hook_install
                0x0000000008002d4c       0x18 zephyr/lib/libc/picolibc/liblib__libc__picolibc.a(libc-hooks.c.obj)
                0x0000000008002d4c                __stdout_hook_install
 .text.cbvprintf
                0x0000000008002d64       0x38 zephyr/lib/libc/picolibc/liblib__libc__picolibc.a(libc-hooks.c.obj)
                0x0000000008002d64                cbvprintf
 .text.malloc_prepare
                0x0000000008002d9c       0x24 zephyr/lib/libc/common/liblib__libc__common.a(malloc.c.obj)
 .text.stm32_exti_isr
                0x0000000008002dc0       0x4c zephyr/drivers/interrupt_controller/libdrivers__interrupt_controller.a(intc_exti_stm32.c.obj)
 .text.stm32_fill_irq_table
                0x0000000008002e0c       0x18 zephyr/drivers/interrupt_controller/libdrivers__interrupt_controller.a(intc_exti_stm32.c.obj)
 .text.stm32_exti_enable
                0x0000000008002e24       0x24 zephyr/drivers/interrupt_controller/libdrivers__interrupt_controller.a(intc_exti_stm32.c.obj)
                0x0000000008002e24                stm32_exti_enable
 .text.stm32_exti_disable
                0x0000000008002e48       0x18 zephyr/drivers/interrupt_controller/libdrivers__interrupt_controller.a(intc_exti_stm32.c.obj)
                0x0000000008002e48                stm32_exti_disable
 .text.stm32_exti_trigger
                0x0000000008002e60       0x60 zephyr/drivers/interrupt_controller/libdrivers__interrupt_controller.a(intc_exti_stm32.c.obj)
                0x0000000008002e60                stm32_exti_trigger
 .text.stm32_exti_set_callback
                0x0000000008002ec0       0x30 zephyr/drivers/interrupt_controller/libdrivers__interrupt_controller.a(intc_exti_stm32.c.obj)
                0x0000000008002ec0                stm32_exti_set_callback
 .text.stm32_exti_unset_callback
                0x0000000008002ef0       0x14 zephyr/drivers/interrupt_controller/libdrivers__interrupt_controller.a(intc_exti_stm32.c.obj)
                0x0000000008002ef0                stm32_exti_unset_callback
 .text.stm32_clock_control_get_subsys_rate
                0x0000000008002f04       0x4c zephyr/drivers/clock_control/libdrivers__clock_control.a(clock_stm32_ll_common.c.obj)
 .text.stm32_clock_control_init
                0x0000000008002f50      0x104 zephyr/drivers/clock_control/libdrivers__clock_control.a(clock_stm32_ll_common.c.obj)
                0x0000000008002f50                stm32_clock_control_init
 .text.config_pll_sysclock
                0x0000000008003054       0x1c zephyr/drivers/clock_control/libdrivers__clock_control.a(clock_stm32f1.c.obj)
                0x0000000008003054                config_pll_sysclock
 .text.uart_console_init
                0x0000000008003070       0x28 zephyr/drivers/console/libdrivers__console.a(uart_console.c.obj)
 .text.console_out
                0x0000000008003098       0x28 zephyr/drivers/console/libdrivers__console.a(uart_console.c.obj)
 .text.gpio_stm32_init
                0x00000000080030c0       0x30 zephyr/drivers/gpio/libdrivers__gpio.a(gpio_stm32.c.obj)
 .text.gpio_stm32_pin_interrupt_configure
                0x00000000080030f0       0xe4 zephyr/drivers/gpio/libdrivers__gpio.a(gpio_stm32.c.obj)
 .text.stm32_i2c_configure_timing
                0x00000000080031d4       0xa8 zephyr/drivers/i2c/libdrivers__i2c.a(i2c_ll_stm32_v1.c.obj)
                0x00000000080031d4                stm32_i2c_configure_timing
 .text.i2c_stm32_get_config.part.0
                0x000000000800327c       0x1c zephyr/drivers/i2c/libdrivers__i2c.a(i2c_ll_stm32.c.obj)
 .text.i2c_stm32_set_smbus_mode
                0x0000000008003298       0x54 zephyr/drivers/i2c/libdrivers__i2c.a(i2c_ll_stm32.c.obj)
                0x0000000008003298                i2c_stm32_set_smbus_mode
 .text.i2c_stm32_runtime_configure
                0x00000000080032ec       0x88 zephyr/drivers/i2c/libdrivers__i2c.a(i2c_ll_stm32.c.obj)
                0x00000000080032ec                i2c_stm32_runtime_configure
 .text.i2c_stm32_init
                0x0000000008003374      0x148 zephyr/drivers/i2c/libdrivers__i2c.a(i2c_ll_stm32.c.obj)
 .text.pinctrl_configure_pins
                0x00000000080034bc       0xf0 zephyr/drivers/pinctrl/libdrivers__pinctrl.a(pinctrl_stm32.c.obj)
                0x00000000080034bc                pinctrl_configure_pins
 .text.uart_stm32_set_baudrate.part.0
                0x00000000080035ac       0x14 zephyr/drivers/serial/libdrivers__serial.a(uart_stm32.c.obj)
 .text.uart_stm32_parameters_set
                0x00000000080035c0       0xf8 zephyr/drivers/serial/libdrivers__serial.a(uart_stm32.c.obj)
 .text.uart_stm32_init
                0x00000000080036b8       0xd8 zephyr/drivers/serial/libdrivers__serial.a(uart_stm32.c.obj)
 .text.uart_stm32_configure
                0x0000000008003790      0x13c zephyr/drivers/serial/libdrivers__serial.a(uart_stm32.c.obj)
 .text.elapsed  0x00000000080038cc       0x4c zephyr/drivers/timer/libdrivers__timer.a(cortex_m_systick.c.obj)
 .text.sys_clock_driver_init
                0x0000000008003918       0x38 zephyr/drivers/timer/libdrivers__timer.a(cortex_m_systick.c.obj)
 .text.sys_clock_isr
                0x0000000008003950       0x54 zephyr/drivers/timer/libdrivers__timer.a(cortex_m_systick.c.obj)
                0x0000000008003950                sys_clock_isr
 .text.sys_clock_set_timeout
                0x00000000080039a4       0xfc zephyr/drivers/timer/libdrivers__timer.a(cortex_m_systick.c.obj)
                0x00000000080039a4                sys_clock_set_timeout
 .text.sys_clock_elapsed
                0x0000000008003aa0       0x3c zephyr/drivers/timer/libdrivers__timer.a(cortex_m_systick.c.obj)
                0x0000000008003aa0                sys_clock_elapsed
 .text.HAL_RCC_GetSysClockFreq
                0x0000000008003adc       0x4c modules/stm32/stm32cube/lib..__modules__hal__stm32__stm32cube.a(stm32f1xx_hal_rcc.c.obj)
                0x0000000008003adc                HAL_RCC_GetSysClockFreq
 .text.LL_SetFlashLatency
                0x0000000008003b28       0x4c modules/stm32/stm32cube/lib..__modules__hal__stm32__stm32cube.a(stm32f1xx_ll_utils.c.obj)
                0x0000000008003b28                LL_SetFlashLatency
 .text.k_sys_fatal_error_handler
                0x0000000008003b74       0x20 zephyr/kernel/libkernel.a(fatal.c.obj)
                0x0000000008003b74                k_sys_fatal_error_handler
 .text.z_fatal_error
                0x0000000008003b94       0xe8 zephyr/kernel/libkernel.a(fatal.c.obj)
                0x0000000008003b94                z_fatal_error
 .text.z_sys_init_run_level
                0x0000000008003c7c       0x2c zephyr/kernel/libkernel.a(init.c.obj)
 .text.bg_thread_main
                0x0000000008003ca8       0xc4 zephyr/kernel/libkernel.a(init.c.obj)
 .text.z_bss_zero
                0x0000000008003d6c       0x18 zephyr/kernel/libkernel.a(init.c.obj)
                0x0000000008003d6c                z_bss_zero
 .text.z_init_cpu
                0x0000000008003d84       0x68 zephyr/kernel/libkernel.a(init.c.obj)
                0x0000000008003d84                z_init_cpu
 .text.z_cstart
                0x0000000008003dec       0xd0 zephyr/kernel/libkernel.a(init.c.obj)
                0x0000000008003dec                z_cstart
 .text.z_impl_k_mutex_lock
                0x0000000008003ebc       0xf0 zephyr/kernel/libkernel.a(mutex.c.obj)
                0x0000000008003ebc                z_impl_k_mutex_lock
 .text.z_impl_k_mutex_unlock
                0x0000000008003fac       0x78 zephyr/kernel/libkernel.a(mutex.c.obj)
                0x0000000008003fac                z_impl_k_mutex_unlock
 .text.z_impl_k_sem_give
                0x0000000008004024       0x48 zephyr/kernel/libkernel.a(sem.c.obj)
                0x0000000008004024                z_impl_k_sem_give
 .text.z_impl_k_sem_take
                0x000000000800406c       0x4c zephyr/kernel/libkernel.a(sem.c.obj)
                0x000000000800406c                z_impl_k_sem_take
 .text.z_impl_k_sem_reset
                0x00000000080040b8       0x38 zephyr/kernel/libkernel.a(sem.c.obj)
                0x00000000080040b8                z_impl_k_sem_reset
 .text.z_setup_new_thread
                0x00000000080040f0       0x70 zephyr/kernel/libkernel.a(thread.c.obj)
                0x00000000080040f0                z_setup_new_thread
 .text.z_impl_k_thread_create
                0x0000000008004160       0x58 zephyr/kernel/libkernel.a(thread.c.obj)
                0x0000000008004160                z_impl_k_thread_create
 .text.update_cache
                0x00000000080041b8       0x3c zephyr/kernel/libkernel.a(sched.c.obj)
 .text.unready_thread
                0x00000000080041f4       0x30 zephyr/kernel/libkernel.a(sched.c.obj)
 .text.ready_thread
                0x0000000008004224       0x68 zephyr/kernel/libkernel.a(sched.c.obj)
 .text.z_thread_halt
                0x000000000800428c       0xd8 zephyr/kernel/libkernel.a(sched.c.obj)
 .text.move_thread_to_end_of_prio_q
                0x0000000008004364       0x74 zephyr/kernel/libkernel.a(sched.c.obj)
                0x0000000008004364                move_thread_to_end_of_prio_q
 .text.z_pend_curr
                0x00000000080043d8       0x58 zephyr/kernel/libkernel.a(sched.c.obj)
                0x00000000080043d8                z_pend_curr
 .text.z_thread_prio_set
                0x0000000008004430       0xcc zephyr/kernel/libkernel.a(sched.c.obj)
                0x0000000008004430                z_thread_prio_set
 .text.z_reschedule
                0x00000000080044fc       0x24 zephyr/kernel/libkernel.a(sched.c.obj)
                0x00000000080044fc                z_reschedule
 .text.z_sched_start
                0x0000000008004520       0x3c zephyr/kernel/libkernel.a(sched.c.obj)
                0x0000000008004520                z_sched_start
 .text.z_reschedule_irqlock
                0x000000000800455c       0x28 zephyr/kernel/libkernel.a(sched.c.obj)
                0x000000000800455c                z_reschedule_irqlock
 .text.k_sched_lock
                0x0000000008004584       0x28 zephyr/kernel/libkernel.a(sched.c.obj)
                0x0000000008004584                k_sched_lock
 .text.k_sched_unlock
                0x00000000080045ac       0x40 zephyr/kernel/libkernel.a(sched.c.obj)
                0x00000000080045ac                k_sched_unlock
 .text.z_sched_init
                0x00000000080045ec       0x10 zephyr/kernel/libkernel.a(sched.c.obj)
                0x00000000080045ec                z_sched_init
 .text.z_impl_k_yield
                0x00000000080045fc       0x7c zephyr/kernel/libkernel.a(sched.c.obj)
                0x00000000080045fc                z_impl_k_yield
 .text.z_tick_sleep
                0x0000000008004678       0x88 zephyr/kernel/libkernel.a(sched.c.obj)
 .text.z_impl_k_sleep
                0x0000000008004700       0x3c zephyr/kernel/libkernel.a(sched.c.obj)
                0x0000000008004700                z_impl_k_sleep
 .text.z_impl_k_sched_current_thread_query
                0x000000000800473c        0xc zephyr/kernel/libkernel.a(sched.c.obj)
                0x000000000800473c                z_impl_k_sched_current_thread_query
 .text.slice_timeout
                0x0000000008004748       0x20 zephyr/kernel/libkernel.a(timeslicing.c.obj)
 .text.thread_is_sliceable
                0x0000000008004768       0x3c zephyr/kernel/libkernel.a(timeslicing.c.obj)
                0x0000000008004768                thread_is_sliceable
 .text.z_reset_time_slice
                0x00000000080047a4       0x50 zephyr/kernel/libkernel.a(timeslicing.c.obj)
                0x00000000080047a4                z_reset_time_slice
 .text.z_time_slice
                0x00000000080047f4       0x60 zephyr/kernel/libkernel.a(timeslicing.c.obj)
                0x00000000080047f4                z_time_slice
 .text.z_data_copy
                0x0000000008004854       0x38 zephyr/kernel/libkernel.a(xip.c.obj)
                0x0000000008004854                z_data_copy
 .text.elapsed  0x000000000800488c       0x14 zephyr/kernel/libkernel.a(timeout.c.obj)
 .text.remove_timeout
                0x00000000080048a0       0x38 zephyr/kernel/libkernel.a(timeout.c.obj)
 .text.next_timeout
                0x00000000080048d8       0x40 zephyr/kernel/libkernel.a(timeout.c.obj)
 .text.z_add_timeout
                0x0000000008004918       0xf4 zephyr/kernel/libkernel.a(timeout.c.obj)
                0x0000000008004918                z_add_timeout
 .text.sys_clock_announce
                0x0000000008004a0c       0xd0 zephyr/kernel/libkernel.a(timeout.c.obj)
                0x0000000008004a0c                sys_clock_announce
 .text.sys_clock_tick_get
                0x0000000008004adc       0x30 zephyr/kernel/libkernel.a(timeout.c.obj)
                0x0000000008004adc                sys_clock_tick_get
 .text.z_timer_expiration_handler
                0x0000000008004b0c       0xe0 zephyr/kernel/libkernel.a(timer.c.obj)
                0x0000000008004b0c                z_timer_expiration_handler
 .text.z_impl_k_timer_start
                0x0000000008004bec       0x74 zephyr/kernel/libkernel.a(timer.c.obj)
                0x0000000008004bec                z_impl_k_timer_start
 .text.boot_banner
                0x0000000008004c60        0xc zephyr/kernel/libkernel.a(banner.c.obj)
                0x0000000008004c60                boot_banner
 .text.snprintf
                0x0000000008004c6c       0x58 /home/romain/zephyr-sdk-0.16.1/arm-zephyr-eabi/bin/../lib/gcc/../../picolibc/arm-zephyr-eabi/lib/thumb/v7-m/nofp/libc.a(libc_tinystdio_snprintf.c.o)
                0x0000000008004c6c                snprintf
 .text.skip_to_arg
                0x0000000008004cc4      0x134 /home/romain/zephyr-sdk-0.16.1/arm-zephyr-eabi/bin/../lib/gcc/../../picolibc/arm-zephyr-eabi/lib/thumb/v7-m/nofp/libc.a(libc_tinystdio_vfprintf.c.o)
 .text.vfprintf
                0x0000000008004df8      0xba8 /home/romain/zephyr-sdk-0.16.1/arm-zephyr-eabi/bin/../lib/gcc/../../picolibc/arm-zephyr-eabi/lib/thumb/v7-m/nofp/libc.a(libc_tinystdio_vfprintf.c.o)
                0x0000000008004df8                __d_vfprintf
 .text.div10    0x00000000080059a0       0x28 /home/romain/zephyr-sdk-0.16.1/arm-zephyr-eabi/bin/../lib/gcc/../../picolibc/arm-zephyr-eabi/lib/thumb/v7-m/nofp/libc.a(libc_tinystdio_dtoa_ryu.c.o)
 .text.__dtoa_engine
                0x00000000080059c8      0x4a4 /home/romain/zephyr-sdk-0.16.1/arm-zephyr-eabi/bin/../lib/gcc/../../picolibc/arm-zephyr-eabi/lib/thumb/v7-m/nofp/libc.a(libc_tinystdio_dtoa_ryu.c.o)
                0x00000000080059c8                __dtoa_engine
 .text.__pow5Factor
                0x0000000008005e6c       0x30 /home/romain/zephyr-sdk-0.16.1/arm-zephyr-eabi/bin/../lib/gcc/../../picolibc/arm-zephyr-eabi/lib/thumb/v7-m/nofp/libc.a(libc_tinystdio_ryu_table.c.o)
                0x0000000008005e6c                __pow5Factor
 .text.__double_computePow5
                0x0000000008005e9c       0xe8 /home/romain/zephyr-sdk-0.16.1/arm-zephyr-eabi/bin/../lib/gcc/../../picolibc/arm-zephyr-eabi/lib/thumb/v7-m/nofp/libc.a(libc_tinystdio_ryu_table.c.o)
                0x0000000008005e9c                __double_computePow5
 .text.__double_computeInvPow5
                0x0000000008005f84       0xf8 /home/romain/zephyr-sdk-0.16.1/arm-zephyr-eabi/bin/../lib/gcc/../../picolibc/arm-zephyr-eabi/lib/thumb/v7-m/nofp/libc.a(libc_tinystdio_ryu_table.c.o)
                0x0000000008005f84                __double_computeInvPow5
 .text.__log10Pow2
                0x000000000800607c        0xc /home/romain/zephyr-sdk-0.16.1/arm-zephyr-eabi/bin/../lib/gcc/../../picolibc/arm-zephyr-eabi/lib/thumb/v7-m/nofp/libc.a(libc_tinystdio_ryu_log10.c.o)
                0x000000000800607c                __log10Pow2
 .text.__log10Pow5
                0x0000000008006088        0xc /home/romain/zephyr-sdk-0.16.1/arm-zephyr-eabi/bin/../lib/gcc/../../picolibc/arm-zephyr-eabi/lib/thumb/v7-m/nofp/libc.a(libc_tinystdio_ryu_log10.c.o)
                0x0000000008006088                __log10Pow5
 .text.__pow5bits
                0x0000000008006094       0x10 /home/romain/zephyr-sdk-0.16.1/arm-zephyr-eabi/bin/../lib/gcc/../../picolibc/arm-zephyr-eabi/lib/thumb/v7-m/nofp/libc.a(libc_tinystdio_ryu_pow5bits.c.o)
                0x0000000008006094                __pow5bits
 .text.atan2f   0x00000000080060a4      0x14c /home/romain/zephyr-sdk-0.16.1/arm-zephyr-eabi/bin/../lib/gcc/../../picolibc/arm-zephyr-eabi/lib/thumb/v7-m/nofp/libc.a(libm_math_sf_atan2.c.o)
                0x00000000080060a4                atan2f
 .text.fmodf    0x00000000080061f0      0x128 /home/romain/zephyr-sdk-0.16.1/arm-zephyr-eabi/bin/../lib/gcc/../../picolibc/arm-zephyr-eabi/lib/thumb/v7-m/nofp/libc.a(libm_math_sf_fmod.c.o)
                0x00000000080061f0                fmodf
 .text.__fpclassifyf
                0x0000000008006318       0x34 /home/romain/zephyr-sdk-0.16.1/arm-zephyr-eabi/bin/../lib/gcc/../../picolibc/arm-zephyr-eabi/lib/thumb/v7-m/nofp/libc.a(libm_common_sf_fpclassify.c.o)
                0x0000000008006318                __fpclassifyf
 .text.__math_invalidf
                0x000000000800634c       0x10 /home/romain/zephyr-sdk-0.16.1/arm-zephyr-eabi/bin/../lib/gcc/../../picolibc/arm-zephyr-eabi/lib/thumb/v7-m/nofp/libc.a(libm_common_math_errf_invalidf.c.o)
                0x000000000800634c                __math_invalidf
 .text.atanf    0x000000000800635c      0x220 /home/romain/zephyr-sdk-0.16.1/arm-zephyr-eabi/bin/../lib/gcc/../../picolibc/arm-zephyr-eabi/lib/thumb/v7-m/nofp/libc.a(libm_math_sf_atan.c.o)
                0x000000000800635c                atanf
 .text._OffsetAbsSyms
                0x000000000800657c        0x2 zephyr/CMakeFiles/offsets.dir/./arch/arm/core/offsets/offsets.c.obj
                0x000000000800657c                _OffsetAbsSyms
 .text.k_msleep.isra.0
                0x000000000800657e        0xa app/libapp.a(main.c.obj)
 .text.i2c_write.constprop.0.isra.0
                0x0000000008006588       0x1c app/libapp.a(moteur.c.obj)
 .text.pid_init
                0x00000000080065a4        0xe app/libapp.a(pid.c.obj)
                0x00000000080065a4                pid_init
 .text.chunk_size
                0x00000000080065b2        0xa zephyr/libzephyr.a(heap.c.obj)
 .text.free_list_add
                0x00000000080065bc       0x4e zephyr/libzephyr.a(heap.c.obj)
 .text.sys_heap_init
                0x000000000800660a       0x7a zephyr/libzephyr.a(heap.c.obj)
                0x000000000800660a                sys_heap_init
 .text.cbpprintf_external
                0x0000000008006684       0x62 zephyr/libzephyr.a(cbprintf_packaged.c.obj)
                0x0000000008006684                cbpprintf_external
 .text.is_ptr   0x00000000080066e6       0x4a zephyr/libzephyr.a(cbprintf_packaged.c.obj)
                0x00000000080066e6                is_ptr
 .text.arch_printk_char_out
                0x0000000008006730        0x4 zephyr/libzephyr.a(printk.c.obj)
                0x0000000008006730                arch_printk_char_out
 .text.printk   0x0000000008006734       0x1a zephyr/libzephyr.a(printk.c.obj)
                0x0000000008006734                printk
 .text.free_space
                0x000000000800674e       0x26 zephyr/libzephyr.a(mpsc_pbuf.c.obj)
 .text.get_usage
                0x0000000008006774       0x22 zephyr/libzephyr.a(mpsc_pbuf.c.obj)
 .text.idx_inc  0x0000000008006796       0x1c zephyr/libzephyr.a(mpsc_pbuf.c.obj)
 .text.rd_idx_inc
                0x00000000080067b2       0x18 zephyr/libzephyr.a(mpsc_pbuf.c.obj)
 .text.add_skip_item
                0x00000000080067ca       0x3e zephyr/libzephyr.a(mpsc_pbuf.c.obj)
 .text.drop_item_locked
                0x0000000008006808       0xee zephyr/libzephyr.a(mpsc_pbuf.c.obj)
 .text.post_drop_action
                0x00000000080068f6       0x36 zephyr/libzephyr.a(mpsc_pbuf.c.obj)
 .text.max_utilization_update
                0x000000000800692c       0x1a zephyr/libzephyr.a(mpsc_pbuf.c.obj)
 .text.mpsc_pbuf_init
                0x0000000008006946       0x42 zephyr/libzephyr.a(mpsc_pbuf.c.obj)
                0x0000000008006946                mpsc_pbuf_init
 .text.mpsc_pbuf_alloc
                0x0000000008006988       0xfe zephyr/libzephyr.a(mpsc_pbuf.c.obj)
                0x0000000008006988                mpsc_pbuf_alloc
 .text.mpsc_pbuf_commit
                0x0000000008006a86       0x3e zephyr/libzephyr.a(mpsc_pbuf.c.obj)
                0x0000000008006a86                mpsc_pbuf_commit
 .text.mpsc_pbuf_claim
                0x0000000008006ac4       0xa8 zephyr/libzephyr.a(mpsc_pbuf.c.obj)
                0x0000000008006ac4                mpsc_pbuf_claim
 .text.mpsc_pbuf_free
                0x0000000008006b6c       0x76 zephyr/libzephyr.a(mpsc_pbuf.c.obj)
                0x0000000008006b6c                mpsc_pbuf_free
 .text.mpsc_pbuf_is_pending
                0x0000000008006be2       0x1a zephyr/libzephyr.a(mpsc_pbuf.c.obj)
                0x0000000008006be2                mpsc_pbuf_is_pending
 .text._ConfigAbsSyms
                0x0000000008006bfc        0x2 zephyr/libzephyr.a(configs.c.obj)
                0x0000000008006bfc                _ConfigAbsSyms
 .text.log_msg_generic_get_wlen
                0x0000000008006bfe       0x20 zephyr/libzephyr.a(log_core.c.obj)
 .text.dummy_timestamp
                0x0000000008006c1e        0x4 zephyr/libzephyr.a(log_core.c.obj)
 .text.atomic_inc
                0x0000000008006c22       0x1a zephyr/libzephyr.a(log_core.c.obj)
 .text.default_lf_get_timestamp
                0x0000000008006c3c       0x10 zephyr/libzephyr.a(log_core.c.obj)
 .text.z_log_vprintk
                0x0000000008006c4c       0x1c zephyr/libzephyr.a(log_core.c.obj)
                0x0000000008006c4c                z_log_vprintk
 .text.z_log_notify_drop
                0x0000000008006c68        0x6 zephyr/libzephyr.a(log_core.c.obj)
 .text.z_log_get_tag
                0x0000000008006c6e        0x4 zephyr/libzephyr.a(log_core.c.obj)
                0x0000000008006c6e                z_log_get_tag
 .text.log_backend_enable
                0x0000000008006c72       0x12 zephyr/libzephyr.a(log_mgmt.c.obj)
                0x0000000008006c72                log_backend_enable
 .text.z_cbprintf_cpy
                0x0000000008006c84       0x2c zephyr/libzephyr.a(log_msg.c.obj)
 .text.z_log_msg_finalize
                0x0000000008006cb0       0x32 zephyr/libzephyr.a(log_msg.c.obj)
                0x0000000008006cb0                z_log_msg_finalize
 .text.z_log_msg_simple_create
                0x0000000008006ce2       0x6e zephyr/libzephyr.a(log_msg.c.obj)
 .text.z_impl_z_log_msg_simple_create_0
                0x0000000008006d50       0x12 zephyr/libzephyr.a(log_msg.c.obj)
                0x0000000008006d50                z_impl_z_log_msg_simple_create_0
 .text.z_impl_z_log_msg_simple_create_1
                0x0000000008006d62       0x14 zephyr/libzephyr.a(log_msg.c.obj)
                0x0000000008006d62                z_impl_z_log_msg_simple_create_1
 .text.buffer_write
                0x0000000008006d76       0x1c zephyr/libzephyr.a(log_output.c.obj)
 .text.log_output_flush
                0x0000000008006d92       0x18 zephyr/libzephyr.a(log_output.c.obj)
                0x0000000008006d92                log_output_flush
 .text.out_func
                0x0000000008006daa       0x36 zephyr/libzephyr.a(log_output.c.obj)
 .text.cr_out_func
                0x0000000008006de0       0x1c zephyr/libzephyr.a(log_output.c.obj)
 .text.log_output_msg_process
                0x0000000008006dfc       0x6a zephyr/libzephyr.a(log_output.c.obj)
                0x0000000008006dfc                log_output_msg_process
 .text.format_set
                0x0000000008006e66        0xc zephyr/libzephyr.a(log_backend_uart.c.obj)
 .text.log_backend_uart_init
                0x0000000008006e72        0xc zephyr/libzephyr.a(log_backend_uart.c.obj)
 .text.panic    0x0000000008006e7e       0x10 zephyr/libzephyr.a(log_backend_uart.c.obj)
 .text.dropped  0x0000000008006e8e        0xa zephyr/libzephyr.a(log_backend_uart.c.obj)
 .text.process  0x0000000008006e98       0x1e zephyr/libzephyr.a(log_backend_uart.c.obj)
 .text.z_do_kernel_oops
                0x0000000008006eb6        0x8 zephyr/arch/arch/arm/core/libarch__arm__core.a(fatal.c.obj)
                0x0000000008006eb6                z_do_kernel_oops
 .text.z_log_msg_simple_create_0.constprop.0
                0x0000000008006ebe        0x8 zephyr/arch/arch/arm/core/cortex_m/libarch__arm__core__cortex_m.a(fault.c.obj)
 .text.z_irq_spurious
                0x0000000008006ec6        0x8 zephyr/arch/arch/arm/core/cortex_m/libarch__arm__core__cortex_m.a(irq_manage.c.obj)
                0x0000000008006ec6                z_irq_spurious
 .text.arch_irq_unlock_outlined
                0x0000000008006ece        0xe zephyr/arch/arch/arm/core/cortex_m/libarch__arm__core__cortex_m.a(thread.c.obj)
                0x0000000008006ece                arch_irq_unlock_outlined
 .text.arch_cpu_idle
                0x0000000008006edc       0x1a zephyr/arch/arch/arm/core/cortex_m/libarch__arm__core__cortex_m.a(cpu_idle.c.obj)
                0x0000000008006edc                arch_cpu_idle
 .text.cbputc   0x0000000008006ef6        0xc zephyr/lib/libc/picolibc/liblib__libc__picolibc.a(libc-hooks.c.obj)
 .text.picolibc_put
                0x0000000008006f02        0xa zephyr/lib/libc/picolibc/liblib__libc__picolibc.a(libc-hooks.c.obj)
 .text.stm32_exti_init
                0x0000000008006f0c       0x92 zephyr/drivers/interrupt_controller/libdrivers__interrupt_controller.a(intc_exti_stm32.c.obj)
 .text.stm32_clock_control_on
                0x0000000008006f9e       0x38 zephyr/drivers/clock_control/libdrivers__clock_control.a(clock_stm32_ll_common.c.obj)
 .text.stm32_clock_control_off
                0x0000000008006fd6       0x24 zephyr/drivers/clock_control/libdrivers__clock_control.a(clock_stm32_ll_common.c.obj)
 .text.stm32_clock_control_configure
                0x0000000008006ffa       0x5a zephyr/drivers/clock_control/libdrivers__clock_control.a(clock_stm32_ll_common.c.obj)
 .text.stm32_clock_control_get_status
                0x0000000008007054       0x34 zephyr/drivers/clock_control/libdrivers__clock_control.a(clock_stm32_ll_common.c.obj)
 .text.config_regulator_voltage
                0x0000000008007088        0x2 zephyr/drivers/clock_control/libdrivers__clock_control.a(clock_stm32_ll_common.c.obj)
                0x0000000008007088                config_regulator_voltage
 .text.config_enable_default_clocks
                0x000000000800708a        0x2 zephyr/drivers/clock_control/libdrivers__clock_control.a(clock_stm32f1.c.obj)
                0x000000000800708a                config_enable_default_clocks
 .text.gpio_stm32_port_get_raw
                0x000000000800708c        0xc zephyr/drivers/gpio/libdrivers__gpio.a(gpio_stm32.c.obj)
 .text.gpio_stm32_port_set_masked_raw
                0x0000000008007098       0x12 zephyr/drivers/gpio/libdrivers__gpio.a(gpio_stm32.c.obj)
 .text.gpio_stm32_port_set_bits_raw
                0x00000000080070aa        0xa zephyr/drivers/gpio/libdrivers__gpio.a(gpio_stm32.c.obj)
 .text.gpio_stm32_port_clear_bits_raw
                0x00000000080070b4        0xa zephyr/drivers/gpio/libdrivers__gpio.a(gpio_stm32.c.obj)
 .text.gpio_stm32_port_toggle_bits
                0x00000000080070be        0xe zephyr/drivers/gpio/libdrivers__gpio.a(gpio_stm32.c.obj)
 .text.gpio_stm32_manage_callback
                0x00000000080070cc       0x52 zephyr/drivers/gpio/libdrivers__gpio.a(gpio_stm32.c.obj)
 .text.LL_GPIO_SetPinMode
                0x000000000800711e       0x2c zephyr/drivers/gpio/libdrivers__gpio.a(gpio_stm32.c.obj)
 .text.LL_GPIO_SetPinSpeed
                0x000000000800714a       0x2c zephyr/drivers/gpio/libdrivers__gpio.a(gpio_stm32.c.obj)
 .text.LL_GPIO_SetPinOutputType
                0x0000000008007176       0x2c zephyr/drivers/gpio/libdrivers__gpio.a(gpio_stm32.c.obj)
 .text.gpio_stm32_isr
                0x00000000080071a2       0x2e zephyr/drivers/gpio/libdrivers__gpio.a(gpio_stm32.c.obj)
 .text.gpio_stm32_configure_raw.constprop.0.isra.0
                0x00000000080071d0       0xaa zephyr/drivers/gpio/libdrivers__gpio.a(gpio_stm32.c.obj)
 .text.gpio_stm32_config
                0x000000000800727a       0x72 zephyr/drivers/gpio/libdrivers__gpio.a(gpio_stm32.c.obj)
 .text.gpio_stm32_configure
                0x00000000080072ec       0x2a zephyr/drivers/gpio/libdrivers__gpio.a(gpio_stm32.c.obj)
                0x00000000080072ec                gpio_stm32_configure
 .text.LL_I2C_ClearFlag_ADDR
                0x0000000008007316       0x12 zephyr/drivers/i2c/libdrivers__i2c.a(i2c_ll_stm32_v1.c.obj)
 .text.stm32_i2c_disable_transfer_interrupts
                0x0000000008007328       0x36 zephyr/drivers/i2c/libdrivers__i2c.a(i2c_ll_stm32_v1.c.obj)
 .text.stm32_i2c_reset
                0x000000000800735e       0x4c zephyr/drivers/i2c/libdrivers__i2c.a(i2c_ll_stm32_v1.c.obj)
 .text.stm32_i2c_master_finish
                0x00000000080073aa       0x1c zephyr/drivers/i2c/libdrivers__i2c.a(i2c_ll_stm32_v1.c.obj)
 .text.handle_txe
                0x00000000080073c6       0x4a zephyr/drivers/i2c/libdrivers__i2c.a(i2c_ll_stm32_v1.c.obj)
 .text.msg_end.constprop.0
                0x0000000008007410       0x42 zephyr/drivers/i2c/libdrivers__i2c.a(i2c_ll_stm32_v1.c.obj)
 .text.stm32_i2c_enable_transfer_interrupts.isra.0
                0x0000000008007452       0x1c zephyr/drivers/i2c/libdrivers__i2c.a(i2c_ll_stm32_v1.c.obj)
 .text.msg_init.constprop.0
                0x000000000800746e       0x72 zephyr/drivers/i2c/libdrivers__i2c.a(i2c_ll_stm32_v1.c.obj)
 .text.handle_rxne
                0x00000000080074e0       0x9c zephyr/drivers/i2c/libdrivers__i2c.a(i2c_ll_stm32_v1.c.obj)
 .text.stm32_i2c_event_isr
                0x000000000800757c      0x198 zephyr/drivers/i2c/libdrivers__i2c.a(i2c_ll_stm32_v1.c.obj)
                0x000000000800757c                stm32_i2c_event_isr
 .text.stm32_i2c_error_isr
                0x0000000008007714       0x50 zephyr/drivers/i2c/libdrivers__i2c.a(i2c_ll_stm32_v1.c.obj)
                0x0000000008007714                stm32_i2c_error_isr
 .text.stm32_i2c_transaction
                0x0000000008007764       0x74 zephyr/drivers/i2c/libdrivers__i2c.a(i2c_ll_stm32_v1.c.obj)
                0x0000000008007764                stm32_i2c_transaction
 .text.i2c_stm32_irq_config_func_0
                0x00000000080077d8       0x26 zephyr/drivers/i2c/libdrivers__i2c.a(i2c_ll_stm32.c.obj)
 .text.i2c_stm32_transfer
                0x00000000080077fe       0x94 zephyr/drivers/i2c/libdrivers__i2c.a(i2c_ll_stm32.c.obj)
 .text.i2c_stm32_get_config
                0x0000000008007892       0x14 zephyr/drivers/i2c/libdrivers__i2c.a(i2c_ll_stm32.c.obj)
                0x0000000008007892                i2c_stm32_get_config
 .text.pinctrl_lookup_state
                0x00000000080078a6       0x26 zephyr/drivers/pinctrl/libdrivers__pinctrl.a(common.c.obj)
                0x00000000080078a6                pinctrl_lookup_state
 .text.reset_stm32_status
                0x00000000080078cc       0x20 zephyr/drivers/reset/libdrivers__reset.a(reset_stm32.c.obj)
 .text.reset_stm32_line_assert
                0x00000000080078ec       0x1c zephyr/drivers/reset/libdrivers__reset.a(reset_stm32.c.obj)
 .text.reset_stm32_line_deassert
                0x0000000008007908       0x1e zephyr/drivers/reset/libdrivers__reset.a(reset_stm32.c.obj)
 .text.reset_stm32_line_toggle
                0x0000000008007926       0x16 zephyr/drivers/reset/libdrivers__reset.a(reset_stm32.c.obj)
 .text.LL_USART_ClearFlag_PE
                0x000000000800793c       0x12 zephyr/drivers/serial/libdrivers__serial.a(uart_stm32.c.obj)
 .text.uart_stm32_err_check
                0x000000000800794e       0x5e zephyr/drivers/serial/libdrivers__serial.a(uart_stm32.c.obj)
 .text.uart_stm32_poll_out
                0x00000000080079ac       0x36 zephyr/drivers/serial/libdrivers__serial.a(uart_stm32.c.obj)
 .text.uart_stm32_poll_in
                0x00000000080079e2       0x22 zephyr/drivers/serial/libdrivers__serial.a(uart_stm32.c.obj)
 .text.uart_stm32_config_get
                0x0000000008007a04       0x8e zephyr/drivers/serial/libdrivers__serial.a(uart_stm32.c.obj)
 .text.uart_stm32_set_baudrate
                0x0000000008007a92       0x4c zephyr/drivers/serial/libdrivers__serial.a(uart_stm32.c.obj)
 .text.z_device_state_init
                0x0000000008007ade        0x2 zephyr/kernel/libkernel.a(device.c.obj)
                0x0000000008007ade                z_device_state_init
 .text.z_impl_device_is_ready
                0x0000000008007ae0       0x16 zephyr/kernel/libkernel.a(device.c.obj)
                0x0000000008007ae0                z_impl_device_is_ready
 .text.arch_system_halt
                0x0000000008007af6       0x10 zephyr/kernel/libkernel.a(fatal.c.obj)
                0x0000000008007af6                arch_system_halt
 .text.do_device_init
                0x0000000008007b06       0x30 zephyr/kernel/libkernel.a(init.c.obj)
 .text.z_early_memset
                0x0000000008007b36        0x4 zephyr/kernel/libkernel.a(init.c.obj)
                0x0000000008007b36                z_early_memset
 .text.z_early_memcpy
                0x0000000008007b3a        0x4 zephyr/kernel/libkernel.a(init.c.obj)
                0x0000000008007b3a                z_early_memcpy
 .text.z_init_static
                0x0000000008007b3e        0x2 zephyr/kernel/libkernel.a(init_static.c.obj)
                0x0000000008007b3e                z_init_static
 .text.idle     0x0000000008007b40       0x16 zephyr/kernel/libkernel.a(idle.c.obj)
                0x0000000008007b40                idle
 .text.adjust_owner_prio.isra.0
                0x0000000008007b56       0x10 zephyr/kernel/libkernel.a(mutex.c.obj)
 .text.z_impl_k_sem_init
                0x0000000008007b66       0x18 zephyr/kernel/libkernel.a(sem.c.obj)
                0x0000000008007b66                z_impl_k_sem_init
 .text.k_is_in_isr
                0x0000000008007b7e        0xc zephyr/kernel/libkernel.a(thread.c.obj)
                0x0000000008007b7e                k_is_in_isr
 .text.z_impl_k_thread_name_set
                0x0000000008007b8a        0x6 zephyr/kernel/libkernel.a(thread.c.obj)
                0x0000000008007b8a                z_impl_k_thread_name_set
 .text.k_thread_name_get
                0x0000000008007b90        0x4 zephyr/kernel/libkernel.a(thread.c.obj)
                0x0000000008007b90                k_thread_name_get
 .text.z_impl_k_thread_start
                0x0000000008007b94        0x4 zephyr/kernel/libkernel.a(thread.c.obj)
                0x0000000008007b94                z_impl_k_thread_start
 .text.sys_dlist_remove
                0x0000000008007b98       0x10 zephyr/kernel/libkernel.a(sched.c.obj)
 .text.unpend_thread_no_timeout
                0x0000000008007ba8       0x14 zephyr/kernel/libkernel.a(sched.c.obj)
 .text.add_to_waitq_locked
                0x0000000008007bbc       0x50 zephyr/kernel/libkernel.a(sched.c.obj)
 .text.z_ready_thread
                0x0000000008007c0c       0x1e zephyr/kernel/libkernel.a(sched.c.obj)
                0x0000000008007c0c                z_ready_thread
 .text.z_impl_k_thread_suspend
                0x0000000008007c2a       0x32 zephyr/kernel/libkernel.a(sched.c.obj)
                0x0000000008007c2a                z_impl_k_thread_suspend
 .text.z_unpend_thread_no_timeout
                0x0000000008007c5c       0x22 zephyr/kernel/libkernel.a(sched.c.obj)
                0x0000000008007c5c                z_unpend_thread_no_timeout
 .text.z_sched_wake_thread
                0x0000000008007c7e       0x42 zephyr/kernel/libkernel.a(sched.c.obj)
                0x0000000008007c7e                z_sched_wake_thread
 .text.z_thread_timeout
                0x0000000008007cc0        0x8 zephyr/kernel/libkernel.a(sched.c.obj)
                0x0000000008007cc0                z_thread_timeout
 .text.z_unpend1_no_timeout
                0x0000000008007cc8       0x2c zephyr/kernel/libkernel.a(sched.c.obj)
                0x0000000008007cc8                z_unpend1_no_timeout
 .text.z_unpend_first_thread
                0x0000000008007cf4       0x36 zephyr/kernel/libkernel.a(sched.c.obj)
                0x0000000008007cf4                z_unpend_first_thread
 .text.z_thread_abort
                0x0000000008007d2a       0x44 zephyr/kernel/libkernel.a(sched.c.obj)
                0x0000000008007d2a                z_thread_abort
 .text.z_abort_timeout
                0x0000000008007d6e       0x2a zephyr/kernel/libkernel.a(timeout.c.obj)
                0x0000000008007d6e                z_abort_timeout
 .text.sys_clock_tick_get_32
                0x0000000008007d98        0x8 zephyr/kernel/libkernel.a(timeout.c.obj)
                0x0000000008007d98                sys_clock_tick_get_32
 .text.z_impl_k_uptime_ticks
                0x0000000008007da0        0x4 zephyr/kernel/libkernel.a(timeout.c.obj)
                0x0000000008007da0                z_impl_k_uptime_ticks
 .text.k_timer_init
                0x0000000008007da4       0x18 zephyr/kernel/libkernel.a(timer.c.obj)
                0x0000000008007da4                k_timer_init
 .text.z_impl_k_timer_stop
                0x0000000008007dbc       0x38 zephyr/kernel/libkernel.a(timer.c.obj)
                0x0000000008007dbc                z_impl_k_timer_stop
 .text.strnlen  0x0000000008007df4       0x18 /home/romain/zephyr-sdk-0.16.1/arm-zephyr-eabi/bin/../lib/gcc/../../picolibc/arm-zephyr-eabi/lib/thumb/v7-m/nofp/libc.a(libc_string_strnlen.c.o)
                0x0000000008007df4                strnlen
 .text.__ultoa_invert
                0x0000000008007e0c       0x54 /home/romain/zephyr-sdk-0.16.1/arm-zephyr-eabi/bin/../lib/gcc/../../picolibc/arm-zephyr-eabi/lib/thumb/v7-m/nofp/libc.a(libc_tinystdio_vfprintf.c.o)
 .text.mulShiftAll64
                0x0000000008007e60      0x17a /home/romain/zephyr-sdk-0.16.1/arm-zephyr-eabi/bin/../lib/gcc/../../picolibc/arm-zephyr-eabi/lib/thumb/v7-m/nofp/libc.a(libc_tinystdio_dtoa_ryu.c.o)
 .text.__umul128
                0x0000000008007fda       0x36 /home/romain/zephyr-sdk-0.16.1/arm-zephyr-eabi/bin/../lib/gcc/../../picolibc/arm-zephyr-eabi/lib/thumb/v7-m/nofp/libc.a(libc_tinystdio_ryu_umul128.c.o)
                0x0000000008007fda                __umul128
 .text.__shiftright128
                0x0000000008008010       0x3e /home/romain/zephyr-sdk-0.16.1/arm-zephyr-eabi/bin/../lib/gcc/../../picolibc/arm-zephyr-eabi/lib/thumb/v7-m/nofp/libc.a(libc_tinystdio_ryu_umul128.c.o)
                0x0000000008008010                __shiftright128
 .text.memcpy   0x000000000800804e       0x1c /home/romain/zephyr-sdk-0.16.1/arm-zephyr-eabi/bin/../lib/gcc/../../picolibc/arm-zephyr-eabi/lib/thumb/v7-m/nofp/libc.a(memcpy.c.o)
                0x000000000800804e                memcpy
                0x000000000800804e                __aeabi_memcpy
                0x000000000800804e                __aeabi_memcpy4
                0x000000000800804e                __aeabi_memcpy8
 .text.memset   0x000000000800806a       0x10 /home/romain/zephyr-sdk-0.16.1/arm-zephyr-eabi/bin/../lib/gcc/../../picolibc/arm-zephyr-eabi/lib/thumb/v7-m/nofp/libc.a(memset.c.o)
                0x000000000800806a                memset
 .text.__file_str_put
                0x000000000800807a       0x10 /home/romain/zephyr-sdk-0.16.1/arm-zephyr-eabi/bin/../lib/gcc/../../picolibc/arm-zephyr-eabi/lib/thumb/v7-m/nofp/libc.a(libc_tinystdio_filestrput.c.o)
                0x000000000800807a                __file_str_put
 *(SORT_BY_ALIGNMENT(.TEXT.*))
 *fill*         0x000000000800808a        0x2 
 .TEXT.__aeabi_read_tp
                0x000000000800808c        0xc zephyr/arch/arch/arm/core/cortex_m/libarch__arm__core__cortex_m.a(__aeabi_read_tp.S.obj)
                0x000000000800808c                __aeabi_read_tp
 *(SORT_BY_ALIGNMENT(.gnu.linkonce.t.*))
 *(SORT_BY_ALIGNMENT(.glue_7t))
 .glue_7t       0x0000000008008098        0x0 linker stubs
 *(SORT_BY_ALIGNMENT(.glue_7))
 .glue_7        0x0000000008008098        0x0 linker stubs
 *(SORT_BY_ALIGNMENT(.vfp11_veneer))
 .vfp11_veneer  0x0000000008008098        0x0 linker stubs
 *(SORT_BY_ALIGNMENT(.v4_bx))
 .v4_bx         0x0000000008008098        0x0 linker stubs
                0x0000000008008098                . = ALIGN (0x4)
                0x0000000008008098                __text_region_end = .

.ARM.exidx      0x0000000008008098        0x8
                0x0000000008008098                __exidx_start = .
 *(SORT_BY_ALIGNMENT(.ARM.exidx*) SORT_BY_ALIGNMENT(gnu.linkonce.armexidx.*))
 .ARM.exidx     0x0000000008008098        0x8 /home/romain/zephyr-sdk-0.16.1/arm-zephyr-eabi/bin/../lib/gcc/arm-zephyr-eabi/12.2.0/thumb/v7-m/nofp/libgcc.a(_udivmoddi4.o)
                0x00000000080080a0                __exidx_end = .
                0x00000000080080a0                __rodata_region_start = .

initlevel       0x00000000080080a0       0x88
                0x00000000080080a0                __init_start = .
                0x00000000080080a0                __init_EARLY_start = .
 *(SORT_BY_NAME(SORT_BY_ALIGNMENT(.z_init_EARLY?_*)))
 *(SORT_BY_NAME(SORT_BY_ALIGNMENT(.z_init_EARLY??_*)))
                0x00000000080080a0                __init_PRE_KERNEL_1_start = .
 *(SORT_BY_NAME(SORT_BY_ALIGNMENT(.z_init_PRE_KERNEL_1?_*)))
 .z_init_PRE_KERNEL_10_0_
                0x00000000080080a0        0x8 zephyr/libzephyr.a(soc.c.obj)
 .z_init_PRE_KERNEL_11_00009_
                0x00000000080080a8        0x8 zephyr/drivers/clock_control/libdrivers__clock_control.a(clock_stm32_ll_common.c.obj)
 .z_init_PRE_KERNEL_11_0_
                0x00000000080080b0        0x8 zephyr/libzephyr.a(soc_config.c.obj)
 *(SORT_BY_NAME(SORT_BY_ALIGNMENT(.z_init_PRE_KERNEL_1??_*)))
 .z_init_PRE_KERNEL_135_00039_
                0x00000000080080b8        0x8 zephyr/drivers/reset/libdrivers__reset.a(reset_stm32.c.obj)
 .z_init_PRE_KERNEL_140_00027_
                0x00000000080080c0        0x8 zephyr/drivers/gpio/libdrivers__gpio.a(gpio_stm32.c.obj)
 .z_init_PRE_KERNEL_140_00030_
                0x00000000080080c8        0x8 zephyr/drivers/gpio/libdrivers__gpio.a(gpio_stm32.c.obj)
 .z_init_PRE_KERNEL_140_00035_
                0x00000000080080d0        0x8 zephyr/drivers/interrupt_controller/libdrivers__interrupt_controller.a(intc_exti_stm32.c.obj)
 .z_init_PRE_KERNEL_140_00052_
                0x00000000080080d8        0x8 zephyr/drivers/gpio/libdrivers__gpio.a(gpio_stm32.c.obj)
 .z_init_PRE_KERNEL_140_00066_
                0x00000000080080e0        0x8 zephyr/drivers/gpio/libdrivers__gpio.a(gpio_stm32.c.obj)
 .z_init_PRE_KERNEL_140_00067_
                0x00000000080080e8        0x8 zephyr/drivers/gpio/libdrivers__gpio.a(gpio_stm32.c.obj)
 .z_init_PRE_KERNEL_150_00040_
                0x00000000080080f0        0x8 zephyr/drivers/serial/libdrivers__serial.a(uart_stm32.c.obj)
 .z_init_PRE_KERNEL_150_00046_
                0x00000000080080f8        0x8 zephyr/drivers/serial/libdrivers__serial.a(uart_stm32.c.obj)
 .z_init_PRE_KERNEL_160_0_
                0x0000000008008100        0x8 zephyr/drivers/console/libdrivers__console.a(uart_console.c.obj)
                0x0000000008008108                __init_PRE_KERNEL_2_start = .
 *(SORT_BY_NAME(SORT_BY_ALIGNMENT(.z_init_PRE_KERNEL_2?_*)))
 .z_init_PRE_KERNEL_20_0_
                0x0000000008008108        0x8 zephyr/drivers/timer/libdrivers__timer.a(cortex_m_systick.c.obj)
 *(SORT_BY_NAME(SORT_BY_ALIGNMENT(.z_init_PRE_KERNEL_2??_*)))
                0x0000000008008110                __init_POST_KERNEL_start = .
 *(SORT_BY_NAME(SORT_BY_ALIGNMENT(.z_init_POST_KERNEL?_*)))
 .z_init_POST_KERNEL0_0_
                0x0000000008008110        0x8 zephyr/libzephyr.a(log_core.c.obj)
 *(SORT_BY_NAME(SORT_BY_ALIGNMENT(.z_init_POST_KERNEL??_*)))
 .z_init_POST_KERNEL35_0_
                0x0000000008008118        0x8 zephyr/lib/libc/common/liblib__libc__common.a(malloc.c.obj)
 .z_init_POST_KERNEL50_00017_
                0x0000000008008120        0x8 zephyr/drivers/i2c/libdrivers__i2c.a(i2c_ll_stm32.c.obj)
                0x0000000008008128                __init_APPLICATION_start = .
 *(SORT_BY_NAME(SORT_BY_ALIGNMENT(.z_init_APPLICATION?_*)))
 *(SORT_BY_NAME(SORT_BY_ALIGNMENT(.z_init_APPLICATION??_*)))
                0x0000000008008128                __init_SMP_start = .
 *(SORT_BY_NAME(SORT_BY_ALIGNMENT(.z_init_SMP?_*)))
 *(SORT_BY_NAME(SORT_BY_ALIGNMENT(.z_init_SMP??_*)))
                0x0000000008008128                __init_end = .
                0x0000000008008128                __deferred_init_list_start = .
 *(SORT_BY_ALIGNMENT(.z_deferred_init*))
                0x0000000008008128                __deferred_init_list_end = .

device_area     0x0000000008008128       0xdc
                0x0000000008008128                _device_list_start = .
 *(SORT_BY_NAME(SORT_BY_ALIGNMENT(._device.static.*_?_*)))
 ._device.static.1_1_
                0x0000000008008128       0x14 zephyr/drivers/clock_control/libdrivers__clock_control.a(clock_stm32_ll_common.c.obj)
                0x0000000008008128                __device_dts_ord_9
 *(SORT_BY_NAME(SORT_BY_ALIGNMENT(._device.static.*_??_*)))
 ._device.static.1_35_
                0x000000000800813c       0x14 zephyr/drivers/reset/libdrivers__reset.a(reset_stm32.c.obj)
                0x000000000800813c                __device_dts_ord_39
 ._device.static.1_40_
                0x0000000008008150       0x14 zephyr/drivers/interrupt_controller/libdrivers__interrupt_controller.a(intc_exti_stm32.c.obj)
                0x0000000008008150                __device_dts_ord_35
 ._device.static.1_40_
                0x0000000008008164       0x64 zephyr/drivers/gpio/libdrivers__gpio.a(gpio_stm32.c.obj)
                0x0000000008008164                __device_dts_ord_67
                0x0000000008008178                __device_dts_ord_66
                0x000000000800818c                __device_dts_ord_27
                0x00000000080081a0                __device_dts_ord_52
                0x00000000080081b4                __device_dts_ord_30
 ._device.static.1_50_
                0x00000000080081c8       0x28 zephyr/drivers/serial/libdrivers__serial.a(uart_stm32.c.obj)
                0x00000000080081c8                __device_dts_ord_40
                0x00000000080081dc                __device_dts_ord_46
 ._device.static.3_50_
                0x00000000080081f0       0x14 zephyr/drivers/i2c/libdrivers__i2c.a(i2c_ll_stm32.c.obj)
                0x00000000080081f0                __device_dts_ord_17
                0x0000000008008204                _device_list_end = .

sw_isr_table    0x0000000008008204      0x158
                0x0000000008008204                . = ALIGN (0x4)
 *(SORT_BY_ALIGNMENT(.gnu.linkonce.sw_isr_table*))
 .gnu.linkonce.sw_isr_table
                0x0000000008008204      0x158 zephyr/arch/common/libisr_tables.a(isr_tables.c.obj)
                0x0000000008008204                _sw_isr_table

initlevel_error
                0x00000000080080a0        0x0
 *(SORT_BY_NAME(SORT_BY_ALIGNMENT(.z_init_[_A-Z0-9]*)))
                0x0000000000000001                ASSERT ((SIZEOF (initlevel_error) == 0x0), Undefined initialization levels used.)

app_shmem_regions
                0x000000000800835c        0x0
                0x000000000800835c                __app_shmem_regions_start = .
 *(SORT_BY_NAME(SORT_BY_ALIGNMENT(.app_regions.*)))
                0x000000000800835c                __app_shmem_regions_end = .

k_p4wq_initparam_area
                0x000000000800835c        0x0
                0x000000000800835c                _k_p4wq_initparam_list_start = .
 *(SORT_BY_NAME(SORT_BY_ALIGNMENT(._k_p4wq_initparam.static.*)))
                0x000000000800835c                _k_p4wq_initparam_list_end = .

_static_thread_data_area
                0x0000000008008360       0x60
                0x0000000008008360                __static_thread_data_list_start = .
 *(SORT_BY_NAME(SORT_BY_ALIGNMENT(.__static_thread_data.static.*)))
 .__static_thread_data.static._k_thread_data_thread_capteurs_id_
                0x0000000008008360       0x30 app/libapp.a(main.c.obj)
                0x0000000008008360                _k_thread_data_thread_capteurs_id
 .__static_thread_data.static._k_thread_data_thread_pid_id_
                0x0000000008008390       0x30 app/libapp.a(main.c.obj)
                0x0000000008008390                _k_thread_data_thread_pid_id
                0x00000000080083c0                __static_thread_data_list_end = .

device_deps     0x00000000080083c0        0x0
                0x00000000080083c0                __device_deps_start = .
 *(SORT_BY_NAME(SORT_BY_ALIGNMENT(.__device_deps_pass2*)))
                0x00000000080083c0                __device_deps_end = .

ztest           0x00000000080083c0        0x0
                0x00000000080083c0                _ztest_expected_result_entry_list_start = .
 *(SORT_BY_NAME(SORT_BY_ALIGNMENT(._ztest_expected_result_entry.static.*)))
                0x00000000080083c0                _ztest_expected_result_entry_list_end = .
                0x00000000080083c0                _ztest_suite_node_list_start = .
 *(SORT_BY_NAME(SORT_BY_ALIGNMENT(._ztest_suite_node.static.*)))
                0x00000000080083c0                _ztest_suite_node_list_end = .
                0x00000000080083c0                _ztest_unit_test_list_start = .
 *(SORT_BY_NAME(SORT_BY_ALIGNMENT(._ztest_unit_test.static.*)))
                0x00000000080083c0                _ztest_unit_test_list_end = .
                0x00000000080083c0                _ztest_test_rule_list_start = .
 *(SORT_BY_NAME(SORT_BY_ALIGNMENT(._ztest_test_rule.static.*)))
                0x00000000080083c0                _ztest_test_rule_list_end = .

init_array      0x00000000080083c0        0x0
 *(SORT_BY_NAME(SORT_BY_ALIGNMENT(.ctors*)))
 *(SORT_BY_NAME(SORT_BY_ALIGNMENT(.init_array*)))
                0x0000000000000001                ASSERT ((SIZEOF (init_array) == 0x0), GNU-style constructors required but STATIC_INIT_GNU not enabled)

bt_l2cap_fixed_chan_area
                0x00000000080083c0        0x0
                0x00000000080083c0                _bt_l2cap_fixed_chan_list_start = .
 *(SORT_BY_NAME(SORT_BY_ALIGNMENT(._bt_l2cap_fixed_chan.static.*)))
                0x00000000080083c0                _bt_l2cap_fixed_chan_list_end = .

bt_gatt_service_static_area
                0x00000000080083c0        0x0
                0x00000000080083c0                _bt_gatt_service_static_list_start = .
 *(SORT_BY_NAME(SORT_BY_ALIGNMENT(._bt_gatt_service_static.static.*)))
                0x00000000080083c0                _bt_gatt_service_static_list_end = .

log_strings_area
                0x00000000080083c0        0x0
                0x00000000080083c0                _log_strings_list_start = .
 *(SORT_BY_NAME(SORT_BY_ALIGNMENT(._log_strings.static.*)))
                0x00000000080083c0                _log_strings_list_end = .

log_const_area  0x00000000080083c0       0x50
                0x00000000080083c0                _log_const_list_start = .
 *(SORT_BY_NAME(SORT_BY_ALIGNMENT(._log_const.static.*)))
 ._log_const.static.log_const_cbprintf_package_
                0x00000000080083c0        0x8 zephyr/libzephyr.a(cbprintf_packaged.c.obj)
                0x00000000080083c0                log_const_cbprintf_package
 ._log_const.static.log_const_i2c_
                0x00000000080083c8        0x8 zephyr/drivers/i2c/libdrivers__i2c.a(i2c_common.c.obj)
                0x00000000080083c8                log_const_i2c
 ._log_const.static.log_const_i2c_ll_stm32_
                0x00000000080083d0        0x8 zephyr/drivers/i2c/libdrivers__i2c.a(i2c_ll_stm32.c.obj)
                0x00000000080083d0                log_const_i2c_ll_stm32
 ._log_const.static.log_const_i2c_ll_stm32_v1_
                0x00000000080083d8        0x8 zephyr/drivers/i2c/libdrivers__i2c.a(i2c_ll_stm32_v1.c.obj)
                0x00000000080083d8                log_const_i2c_ll_stm32_v1
 ._log_const.static.log_const_log_
                0x00000000080083e0        0x8 zephyr/libzephyr.a(log_core.c.obj)
                0x00000000080083e0                log_const_log
 ._log_const.static.log_const_log_mgmt_
                0x00000000080083e8        0x8 zephyr/libzephyr.a(log_mgmt.c.obj)
                0x00000000080083e8                log_const_log_mgmt
 ._log_const.static.log_const_log_uart_
                0x00000000080083f0        0x8 zephyr/libzephyr.a(log_backend_uart.c.obj)
                0x00000000080083f0                log_const_log_uart
 ._log_const.static.log_const_os_
                0x00000000080083f8        0x8 zephyr/kernel/libkernel.a(init.c.obj)
                0x00000000080083f8                log_const_os
 ._log_const.static.log_const_stm32_
                0x0000000008008400        0x8 zephyr/drivers/gpio/libdrivers__gpio.a(gpio_stm32.c.obj)
                0x0000000008008400                log_const_stm32
 ._log_const.static.log_const_uart_stm32_
                0x0000000008008408        0x8 zephyr/drivers/serial/libdrivers__serial.a(uart_stm32.c.obj)
                0x0000000008008408                log_const_uart_stm32
                0x0000000008008410                _log_const_list_end = .

log_backend_area
                0x0000000008008410       0x10
                0x0000000008008410                _log_backend_list_start = .
 *(SORT_BY_NAME(SORT_BY_ALIGNMENT(._log_backend.static.*)))
 ._log_backend.static.log_backend_uart_
                0x0000000008008410       0x10 zephyr/libzephyr.a(log_backend_uart.c.obj)
                0x0000000008008420                _log_backend_list_end = .

log_link_area   0x0000000008008420        0x0
                0x0000000008008420                _log_link_list_start = .
 *(SORT_BY_NAME(SORT_BY_ALIGNMENT(._log_link.static.*)))
                0x0000000008008420                _log_link_list_end = .

tracing_backend_area
                0x0000000008008420        0x0
                0x0000000008008420                _tracing_backend_list_start = .
 *(SORT_BY_NAME(SORT_BY_ALIGNMENT(._tracing_backend.static.*)))
                0x0000000008008420                _tracing_backend_list_end = .

zephyr_dbg_info
 *(SORT_BY_ALIGNMENT(.dbg_thread_info))

intc_table_area
                0x0000000008008420        0x0
                0x0000000008008420                _intc_table_list_start = .
 *(SORT_BY_NAME(SORT_BY_ALIGNMENT(._intc_table.static.*)))
                0x0000000008008420                _intc_table_list_end = .

symbol_to_keep  0x0000000008008420        0x0
                0x0000000008008420                __symbol_to_keep_start = .
 *(SORT_BY_NAME(SORT_BY_ALIGNMENT(.symbol_to_keep*)))
                0x0000000008008420                __symbol_to_keep_end = .

shell_area      0x0000000008008420        0x0
                0x0000000008008420                _shell_list_start = .
 *(SORT_BY_NAME(SORT_BY_ALIGNMENT(._shell.static.*)))
                0x0000000008008420                _shell_list_end = .

shell_root_cmds_area
                0x0000000008008420        0x0
                0x0000000008008420                _shell_root_cmds_list_start = .
 *(SORT_BY_NAME(SORT_BY_ALIGNMENT(._shell_root_cmds.static.*)))
                0x0000000008008420                _shell_root_cmds_list_end = .

shell_subcmds_area
                0x0000000008008420        0x0
                0x0000000008008420                _shell_subcmds_list_start = .
 *(SORT_BY_NAME(SORT_BY_ALIGNMENT(._shell_subcmds.static.*)))
                0x0000000008008420                _shell_subcmds_list_end = .

shell_dynamic_subcmds_area
                0x0000000008008420        0x0
                0x0000000008008420                _shell_dynamic_subcmds_list_start = .
 *(SORT_BY_NAME(SORT_BY_ALIGNMENT(._shell_dynamic_subcmds.static.*)))
                0x0000000008008420                _shell_dynamic_subcmds_list_end = .

cfb_font_area   0x0000000008008420        0x0
                0x0000000008008420                _cfb_font_list_start = .
 *(SORT_BY_NAME(SORT_BY_ALIGNMENT(._cfb_font.static.*)))
                0x0000000008008420                _cfb_font_list_end = .

tdata           0x0000000008008420        0x0
 *(SORT_BY_ALIGNMENT(.tdata) SORT_BY_ALIGNMENT(.tdata.*) SORT_BY_ALIGNMENT(.gnu.linkonce.td.*))

tbss            0x0000000008008420        0x4
 *(SORT_BY_ALIGNMENT(.tbss) SORT_BY_ALIGNMENT(.tbss.*) SORT_BY_ALIGNMENT(.gnu.linkonce.tb.*) SORT_BY_ALIGNMENT(.tcommon))
 .tbss.z_tls_current
                0x0000000008008420        0x4 zephyr/libzephyr.a(thread_entry.c.obj)
                0x0000000008008420                z_tls_current
                0x0000000008008420                PROVIDE (__tdata_start = LOADADDR (tdata))
                0x0000000000000001                PROVIDE (__tdata_align = ALIGNOF (tdata))
                0x0000000000000000                PROVIDE (__tdata_size = (((SIZEOF (tdata) + __tdata_align) - 0x1) & ~ ((__tdata_align - 0x1))))
                [!provide]                        PROVIDE (__tdata_end = (__tdata_start + __tdata_size))
                0x0000000000000004                PROVIDE (__tbss_align = ALIGNOF (tbss))
                [!provide]                        PROVIDE (__tbss_start = ADDR (tbss))
                0x0000000000000004                PROVIDE (__tbss_size = (((SIZEOF (tbss) + __tbss_align) - 0x1) & ~ ((__tbss_align - 0x1))))
                [!provide]                        PROVIDE (__tbss_end = (__tbss_start + __tbss_size))
                [!provide]                        PROVIDE (__tls_start = __tdata_start)
                [!provide]                        PROVIDE (__tls_end = __tbss_end)
                [!provide]                        PROVIDE (__tls_size = (__tbss_end - __tdata_start))

rodata          0x0000000008008420     0x1090
 *(SORT_BY_ALIGNMENT(.rodata))
 *(SORT_BY_ALIGNMENT(.rodata.*))
 .rodata.DOUBLE_POW5_TABLE
                0x0000000008008420       0xd0 /home/romain/zephyr-sdk-0.16.1/arm-zephyr-eabi/bin/../lib/gcc/../../picolibc/arm-zephyr-eabi/lib/thumb/v7-m/nofp/libc.a(libc_tinystdio_ryu_table.c.o)
 .rodata.DOUBLE_POW5_SPLIT2
                0x00000000080084f0       0xd0 /home/romain/zephyr-sdk-0.16.1/arm-zephyr-eabi/bin/../lib/gcc/../../picolibc/arm-zephyr-eabi/lib/thumb/v7-m/nofp/libc.a(libc_tinystdio_ryu_table.c.o)
 .rodata.DOUBLE_POW5_INV_SPLIT2
                0x00000000080085c0       0xf0 /home/romain/zephyr-sdk-0.16.1/arm-zephyr-eabi/bin/../lib/gcc/../../picolibc/arm-zephyr-eabi/lib/thumb/v7-m/nofp/libc.a(libc_tinystdio_ryu_table.c.o)
 .rodata.mpsc_config
                0x00000000080086b0       0x14 zephyr/libzephyr.a(log_core.c.obj)
 .rodata.format_table
                0x00000000080086c4       0x10 zephyr/libzephyr.a(log_core.c.obj)
 .rodata.colors
                0x00000000080086d4       0x14 zephyr/libzephyr.a(log_output.c.obj)
 .rodata.severity
                0x00000000080086e8       0x14 zephyr/libzephyr.a(log_output.c.obj)
 .rodata.lbu_cb_ctx
                0x00000000080086fc        0x8 zephyr/libzephyr.a(log_backend_uart.c.obj)
 .rodata.lbu_output
                0x0000000008008704       0x10 zephyr/libzephyr.a(log_backend_uart.c.obj)
 .rodata.log_backend_uart_api
                0x0000000008008714       0x1c zephyr/libzephyr.a(log_backend_uart.c.obj)
                0x0000000008008714                log_backend_uart_api
 .rodata.stm32_clock_control_api
                0x0000000008008730       0x1c zephyr/drivers/clock_control/libdrivers__clock_control.a(clock_stm32_ll_common.c.obj)
 .rodata.gpio_stm32_cfg_e
                0x000000000800874c       0x14 zephyr/drivers/gpio/libdrivers__gpio.a(gpio_stm32.c.obj)
 .rodata.gpio_stm32_cfg_d
                0x0000000008008760       0x14 zephyr/drivers/gpio/libdrivers__gpio.a(gpio_stm32.c.obj)
 .rodata.gpio_stm32_cfg_c
                0x0000000008008774       0x14 zephyr/drivers/gpio/libdrivers__gpio.a(gpio_stm32.c.obj)
 .rodata.gpio_stm32_cfg_b
                0x0000000008008788       0x14 zephyr/drivers/gpio/libdrivers__gpio.a(gpio_stm32.c.obj)
 .rodata.gpio_stm32_cfg_a
                0x000000000800879c       0x14 zephyr/drivers/gpio/libdrivers__gpio.a(gpio_stm32.c.obj)
 .rodata.gpio_stm32_driver
                0x00000000080087b0       0x24 zephyr/drivers/gpio/libdrivers__gpio.a(gpio_stm32.c.obj)
 .rodata.i2c_stm32_cfg_0
                0x00000000080087d4       0x18 zephyr/drivers/i2c/libdrivers__i2c.a(i2c_ll_stm32.c.obj)
 .rodata.pclken_0
                0x00000000080087ec        0x8 zephyr/drivers/i2c/libdrivers__i2c.a(i2c_ll_stm32.c.obj)
 .rodata.__pinctrl_dev_config__device_dts_ord_17
                0x00000000080087f4        0x8 zephyr/drivers/i2c/libdrivers__i2c.a(i2c_ll_stm32.c.obj)
 .rodata.__pinctrl_states__device_dts_ord_17
                0x00000000080087fc        0x8 zephyr/drivers/i2c/libdrivers__i2c.a(i2c_ll_stm32.c.obj)
 .rodata.__pinctrl_state_pins_0__device_dts_ord_17
                0x0000000008008804       0x10 zephyr/drivers/i2c/libdrivers__i2c.a(i2c_ll_stm32.c.obj)
 .rodata.api_funcs
                0x0000000008008814       0x18 zephyr/drivers/i2c/libdrivers__i2c.a(i2c_ll_stm32.c.obj)
 .rodata.gpio_ports
                0x000000000800882c       0x40 zephyr/drivers/pinctrl/libdrivers__pinctrl.a(pinctrl_stm32.c.obj)
 .rodata.reset_stm32_config
                0x000000000800886c        0x4 zephyr/drivers/reset/libdrivers__reset.a(reset_stm32.c.obj)
 .rodata.reset_stm32_driver_api
                0x0000000008008870       0x10 zephyr/drivers/reset/libdrivers__reset.a(reset_stm32.c.obj)
 .rodata.uart_stm32_cfg_1
                0x0000000008008880       0x24 zephyr/drivers/serial/libdrivers__serial.a(uart_stm32.c.obj)
 .rodata.pclken_1
                0x00000000080088a4        0x8 zephyr/drivers/serial/libdrivers__serial.a(uart_stm32.c.obj)
 .rodata.__pinctrl_dev_config__device_dts_ord_40
                0x00000000080088ac        0x8 zephyr/drivers/serial/libdrivers__serial.a(uart_stm32.c.obj)
 .rodata.__pinctrl_states__device_dts_ord_40
                0x00000000080088b4        0x8 zephyr/drivers/serial/libdrivers__serial.a(uart_stm32.c.obj)
 .rodata.__pinctrl_state_pins_0__device_dts_ord_40
                0x00000000080088bc       0x10 zephyr/drivers/serial/libdrivers__serial.a(uart_stm32.c.obj)
 .rodata.uart_stm32_cfg_0
                0x00000000080088cc       0x24 zephyr/drivers/serial/libdrivers__serial.a(uart_stm32.c.obj)
 .rodata.pclken_0
                0x00000000080088f0        0x8 zephyr/drivers/serial/libdrivers__serial.a(uart_stm32.c.obj)
 .rodata.__pinctrl_dev_config__device_dts_ord_46
                0x00000000080088f8        0x8 zephyr/drivers/serial/libdrivers__serial.a(uart_stm32.c.obj)
 .rodata.__pinctrl_states__device_dts_ord_46
                0x0000000008008900        0x8 zephyr/drivers/serial/libdrivers__serial.a(uart_stm32.c.obj)
 .rodata.__pinctrl_state_pins_0__device_dts_ord_46
                0x0000000008008908       0x10 zephyr/drivers/serial/libdrivers__serial.a(uart_stm32.c.obj)
 .rodata.uart_stm32_driver_api
                0x0000000008008918       0x14 zephyr/drivers/serial/libdrivers__serial.a(uart_stm32.c.obj)
 .rodata.CSWTCH.486
                0x000000000800892c       0x14 zephyr/kernel/libkernel.a(fatal.c.obj)
 .rodata.levels.0
                0x0000000008008940       0x18 zephyr/kernel/libkernel.a(init.c.obj)
 .rodata.POW5_OFFSETS
                0x0000000008008958       0x54 /home/romain/zephyr-sdk-0.16.1/arm-zephyr-eabi/bin/../lib/gcc/../../picolibc/arm-zephyr-eabi/lib/thumb/v7-m/nofp/libc.a(libc_tinystdio_ryu_table.c.o)
 .rodata.POW5_INV_OFFSETS
                0x00000000080089ac       0x54 /home/romain/zephyr-sdk-0.16.1/arm-zephyr-eabi/bin/../lib/gcc/../../picolibc/arm-zephyr-eabi/lib/thumb/v7-m/nofp/libc.a(libc_tinystdio_ryu_table.c.o)
 .rodata.Zero   0x0000000008008a00        0x8 /home/romain/zephyr-sdk-0.16.1/arm-zephyr-eabi/bin/../lib/gcc/../../picolibc/arm-zephyr-eabi/lib/thumb/v7-m/nofp/libc.a(libm_math_sf_fmod.c.o)
 .rodata.atanlo
                0x0000000008008a08       0x10 /home/romain/zephyr-sdk-0.16.1/arm-zephyr-eabi/bin/../lib/gcc/../../picolibc/arm-zephyr-eabi/lib/thumb/v7-m/nofp/libc.a(libm_math_sf_atan.c.o)
 .rodata.atanhi
                0x0000000008008a18       0x10 /home/romain/zephyr-sdk-0.16.1/arm-zephyr-eabi/bin/../lib/gcc/../../picolibc/arm-zephyr-eabi/lib/thumb/v7-m/nofp/libc.a(libm_math_sf_atan.c.o)
 .rodata.CSWTCH.526
                0x0000000008008a28        0x6 zephyr/drivers/serial/libdrivers__serial.a(uart_stm32.c.obj)
 .rodata.main.str1.1
                0x0000000008008a2e       0x2c app/libapp.a(main.c.obj)
 .rodata.str1.1
                0x0000000008008a5a       0x21 app/libapp.a(main.c.obj)
 .rodata.moteur_init.str1.1
                0x0000000008008a7b       0x26 app/libapp.a(moteur.c.obj)
 .rodata.boussole_init.str1.1
                0x0000000008008aa1       0x21 app/libapp.a(boussole.c.obj)
 .rodata.cbprintf_package_convert.str1.1
                0x0000000008008ac2       0xa3 zephyr/libzephyr.a(cbprintf_packaged.c.obj)
 .rodata.str1.1
                0x0000000008008b65       0x11 zephyr/libzephyr.a(cbprintf_packaged.c.obj)
 .rodata.enable_logger.str1.1
                0x0000000008008b76        0x8 zephyr/libzephyr.a(log_core.c.obj)
 .rodata.str1.1
                0x0000000008008b7e        0x4 zephyr/libzephyr.a(log_core.c.obj)
 .rodata.str1.1
                0x0000000008008b82        0x9 zephyr/libzephyr.a(log_mgmt.c.obj)
 .rodata.z_impl_z_log_msg_static_create.str1.1
                0x0000000008008b8b       0x3f zephyr/libzephyr.a(log_msg.c.obj)
 .rodata.z_log_msg_runtime_vcreate.str1.1
                0x0000000008008bca       0x38 zephyr/libzephyr.a(log_msg.c.obj)
 .rodata.newline_print.str1.1
                0x0000000008008c02       0x38 zephyr/libzephyr.a(log_output.c.obj)
                                          0x5 (size before relaxing)
 .rodata.log_output_process.str1.1
                0x0000000008008c02       0x4f zephyr/libzephyr.a(log_output.c.obj)
                                         0x51 (size before relaxing)
 .rodata.log_output_dropped_process.str1.1
                0x0000000008008c51       0x4f zephyr/libzephyr.a(log_output.c.obj)
                                          0x3 (size before relaxing)
 .rodata.postfix.0
                0x0000000008008c51       0x1c zephyr/libzephyr.a(log_output.c.obj)
 .rodata.prefix.1
                0x0000000008008c6d        0xc zephyr/libzephyr.a(log_output.c.obj)
 .rodata.str1.1
                0x0000000008008c79       0x20 zephyr/libzephyr.a(log_output.c.obj)
 .rodata.str1.1
                0x0000000008008c99       0x1a zephyr/libzephyr.a(log_backend_uart.c.obj)
 .rodata.z_arm_fatal_error.str1.1
                0x0000000008008cb3       0xae zephyr/arch/arch/arm/core/libarch__arm__core.a(fatal.c.obj)
 .rodata.mem_manage_fault.constprop.0.str1.1
                0x0000000008008d61       0xa9 zephyr/arch/arch/arm/core/cortex_m/libarch__arm__core__cortex_m.a(fault.c.obj)
 .rodata.usage_fault.constprop.0.str1.1
                0x0000000008008e0a       0xcd zephyr/arch/arch/arm/core/cortex_m/libarch__arm__core__cortex_m.a(fault.c.obj)
 .rodata.bus_fault.constprop.0.str1.1
                0x0000000008008ed7       0x88 zephyr/arch/arch/arm/core/cortex_m/libarch__arm__core__cortex_m.a(fault.c.obj)
 .rodata.z_arm_fault.str1.1
                0x0000000008008f5f      0x111 zephyr/arch/arch/arm/core/cortex_m/libarch__arm__core__cortex_m.a(fault.c.obj)
 .rodata.line_range_6.0
                0x0000000008009070        0x2 zephyr/drivers/interrupt_controller/libdrivers__interrupt_controller.a(intc_exti_stm32.c.obj)
 .rodata.line_range_5.1
                0x0000000008009072        0x2 zephyr/drivers/interrupt_controller/libdrivers__interrupt_controller.a(intc_exti_stm32.c.obj)
 .rodata.line_range_4.2
                0x0000000008009074        0x2 zephyr/drivers/interrupt_controller/libdrivers__interrupt_controller.a(intc_exti_stm32.c.obj)
 .rodata.line_range_3.3
                0x0000000008009076        0x2 zephyr/drivers/interrupt_controller/libdrivers__interrupt_controller.a(intc_exti_stm32.c.obj)
 .rodata.line_range_2.4
                0x0000000008009078        0x2 zephyr/drivers/interrupt_controller/libdrivers__interrupt_controller.a(intc_exti_stm32.c.obj)
 .rodata.line_range_1.5
                0x000000000800907a        0x2 zephyr/drivers/interrupt_controller/libdrivers__interrupt_controller.a(intc_exti_stm32.c.obj)
 .rodata.line_range_0.6
                0x000000000800907c        0x2 zephyr/drivers/interrupt_controller/libdrivers__interrupt_controller.a(intc_exti_stm32.c.obj)
 .rodata.str1.1
                0x000000000800907e       0x1e zephyr/drivers/interrupt_controller/libdrivers__interrupt_controller.a(intc_exti_stm32.c.obj)
 .rodata.str1.1
                0x000000000800909c        0xd zephyr/drivers/clock_control/libdrivers__clock_control.a(clock_stm32_ll_common.c.obj)
 .rodata.str1.1
                0x00000000080090a9       0x46 zephyr/drivers/gpio/libdrivers__gpio.a(gpio_stm32.c.obj)
                                         0x4c (size before relaxing)
 .rodata.str1.1
                0x00000000080090ef        0x4 zephyr/drivers/i2c/libdrivers__i2c.a(i2c_common.c.obj)
 .rodata.str1.1
                0x00000000080090f3       0x10 zephyr/drivers/i2c/libdrivers__i2c.a(i2c_ll_stm32_v1.c.obj)
 .rodata.i2c_stm32_get_config.part.0.str1.1
                0x0000000008009103       0x1e zephyr/drivers/i2c/libdrivers__i2c.a(i2c_ll_stm32.c.obj)
 .rodata.i2c_stm32_set_smbus_mode.str1.1
                0x0000000008009121       0x14 zephyr/drivers/i2c/libdrivers__i2c.a(i2c_ll_stm32.c.obj)
 .rodata.i2c_stm32_runtime_configure.str1.1
                0x0000000008009135       0x2e zephyr/drivers/i2c/libdrivers__i2c.a(i2c_ll_stm32.c.obj)
 .rodata.i2c_stm32_init.str1.1
                0x0000000008009163       0x8e zephyr/drivers/i2c/libdrivers__i2c.a(i2c_ll_stm32.c.obj)
 .rodata.str1.1
                0x00000000080091f1       0x1a zephyr/drivers/i2c/libdrivers__i2c.a(i2c_ll_stm32.c.obj)
 .rodata.str1.1
                0x000000000800920b       0x11 zephyr/drivers/reset/libdrivers__reset.a(reset_stm32.c.obj)
 .rodata.uart_stm32_set_baudrate.part.0.str1.1
                0x000000000800921c       0x2e zephyr/drivers/serial/libdrivers__serial.a(uart_stm32.c.obj)
 .rodata.uart_stm32_init.str1.1
                0x000000000800921c       0x3b zephyr/drivers/serial/libdrivers__serial.a(uart_stm32.c.obj)
                                         0x5a (size before relaxing)
 .rodata.str1.1
                0x0000000008009257       0x2b zephyr/drivers/serial/libdrivers__serial.a(uart_stm32.c.obj)
 .rodata.AHBPrescTable
                0x0000000008009282       0x10 modules/stm32/stm32cube/lib..__modules__hal__stm32__stm32cube.a(system_stm32f1xx.c.obj)
                0x0000000008009282                AHBPrescTable
 .rodata.aPredivFactorTable.0
                0x0000000008009292        0x2 modules/stm32/stm32cube/lib..__modules__hal__stm32__stm32cube.a(stm32f1xx_hal_rcc.c.obj)
 .rodata.aPLLMULFactorTable.1
                0x0000000008009294       0x10 modules/stm32/stm32cube/lib..__modules__hal__stm32__stm32cube.a(stm32f1xx_hal_rcc.c.obj)
 .rodata.k_sys_fatal_error_handler.str1.1
                0x00000000080092a4        0xf zephyr/kernel/libkernel.a(fatal.c.obj)
 .rodata.z_fatal_error.str1.1
                0x00000000080092b3       0x77 zephyr/kernel/libkernel.a(fatal.c.obj)
 .rodata.str1.1
                0x000000000800932a       0x4a zephyr/kernel/libkernel.a(fatal.c.obj)
 .rodata.z_cstart.str1.1
                0x0000000008009374        0x5 zephyr/kernel/libkernel.a(init.c.obj)
 .rodata.str1.1
                0x0000000008009379        0x3 zephyr/kernel/libkernel.a(init.c.obj)
 .rodata.boot_banner.str1.1
                0x000000000800937c       0x28 zephyr/kernel/libkernel.a(banner.c.obj)
 .rodata._ctype_
                0x00000000080093a4      0x101 /home/romain/zephyr-sdk-0.16.1/arm-zephyr-eabi/bin/../lib/gcc/../../picolibc/arm-zephyr-eabi/lib/thumb/v7-m/nofp/libc.a(libc_ctype_ctype_.c.o)
                0x00000000080093a4                _ctype_
 .rodata.vfprintf.str1.1
                0x00000000080094a5        0xb /home/romain/zephyr-sdk-0.16.1/arm-zephyr-eabi/bin/../lib/gcc/../../picolibc/arm-zephyr-eabi/lib/thumb/v7-m/nofp/libc.a(libc_tinystdio_vfprintf.c.o)
                                          0xf (size before relaxing)
 *(SORT_BY_ALIGNMENT(.gnu.linkonce.r.*))
                0x00000000080094b0                . = ALIGN (0x4)
                0x00000000080094b0                __rodata_region_end = .
                0x00000000080094b0                . = ALIGN (_region_min_align)
                0x00000000080094b0                __rom_region_end = ((__rom_region_start + .) - ADDR (rom_start))

/DISCARD/
 *(SORT_BY_ALIGNMENT(.got.plt))
 *(SORT_BY_ALIGNMENT(.igot.plt))
 *(SORT_BY_ALIGNMENT(.got))
 *(SORT_BY_ALIGNMENT(.igot))
                0x0000000020000000                . = 0x20000000
                0x0000000020000000                . = ALIGN (_region_min_align)
                0x0000000020000000                _image_ram_start = .

.ramfunc        0x0000000020000000        0x0 load address 0x00000000080094b0
                0x0000000020000000                __ramfunc_region_start = .
                0x0000000020000000                . = ALIGN (_region_min_align)
                0x0000000020000000                __ramfunc_start = .
 *(SORT_BY_ALIGNMENT(.ramfunc))
 *(SORT_BY_ALIGNMENT(.ramfunc.*))
                0x0000000020000000                . = ALIGN (_region_min_align)
                0x0000000020000000                __ramfunc_end = .
                0x0000000000000000                __ramfunc_size = (__ramfunc_end - __ramfunc_start)
                0x00000000080094b0                __ramfunc_load_start = LOADADDR (.ramfunc)

datas           0x0000000020000000       0x60 load address 0x00000000080094b0
                0x0000000020000000                __data_region_start = .
                0x0000000020000000                __data_start = .
 *(SORT_BY_ALIGNMENT(.data))
 *(SORT_BY_ALIGNMENT(.data.*))
 .data._char_out
                0x0000000020000000        0x4 zephyr/libzephyr.a(printk.c.obj)
                0x0000000020000000                _char_out
 .data.timestamp_func
                0x0000000020000004        0x4 zephyr/libzephyr.a(log_core.c.obj)
 .data.backend_cb_log_backend_uart
                0x0000000020000008        0x8 zephyr/libzephyr.a(log_backend_uart.c.obj)
 .data.handler  0x0000000020000010        0x4 zephyr/arch/arch/arm/core/libarch__arm__core.a(nmi.c.obj)
 .data.__stdout
                0x0000000020000014       0x10 zephyr/lib/libc/picolibc/liblib__libc__picolibc.a(libc-hooks.c.obj)
 .data.uart_stm32_data_1
                0x0000000020000024        0x8 zephyr/drivers/serial/libdrivers__serial.a(uart_stm32.c.obj)
 .data.uart_cfg_1
                0x000000002000002c        0x8 zephyr/drivers/serial/libdrivers__serial.a(uart_stm32.c.obj)
 .data.uart_stm32_data_0
                0x0000000020000034        0x8 zephyr/drivers/serial/libdrivers__serial.a(uart_stm32.c.obj)
 .data.uart_cfg_0
                0x000000002000003c        0x8 zephyr/drivers/serial/libdrivers__serial.a(uart_stm32.c.obj)
 .data.SystemCoreClock
                0x0000000020000044        0x4 modules/stm32/stm32cube/lib..__modules__hal__stm32__stm32cube.a(system_stm32f1xx.c.obj)
                0x0000000020000044                SystemCoreClock
 .data.timeout_list
                0x0000000020000048        0x8 zephyr/kernel/libkernel.a(timeout.c.obj)
 .data.exti_irq_table
                0x0000000020000050       0x10 zephyr/drivers/interrupt_controller/libdrivers__interrupt_controller.a(intc_exti_stm32.c.obj)
 *(SORT_BY_ALIGNMENT(.kernel.*))
                0x0000000020000060                __data_end = .
                0x0000000000000060                __data_size = (__data_end - __data_start)
                0x00000000080094b0                __data_load_start = LOADADDR (datas)
                0x00000000080094b0                __data_region_load_start = LOADADDR (datas)

device_states   0x0000000020000060       0x16 load address 0x0000000008009510
                0x0000000020000060                __device_states_start = .
 *(SORT_BY_ALIGNMENT(.z_devstate))
 .z_devstate    0x0000000020000060        0x2 zephyr/drivers/interrupt_controller/libdrivers__interrupt_controller.a(intc_exti_stm32.c.obj)
 .z_devstate    0x0000000020000062        0x2 zephyr/drivers/clock_control/libdrivers__clock_control.a(clock_stm32_ll_common.c.obj)
 .z_devstate    0x0000000020000064        0xa zephyr/drivers/gpio/libdrivers__gpio.a(gpio_stm32.c.obj)
 .z_devstate    0x000000002000006e        0x2 zephyr/drivers/i2c/libdrivers__i2c.a(i2c_ll_stm32.c.obj)
 .z_devstate    0x0000000020000070        0x2 zephyr/drivers/reset/libdrivers__reset.a(reset_stm32.c.obj)
 .z_devstate    0x0000000020000072        0x4 zephyr/drivers/serial/libdrivers__serial.a(uart_stm32.c.obj)
 *(SORT_BY_ALIGNMENT(.z_devstate.*))
                0x0000000020000076                __device_states_end = .

log_mpsc_pbuf_area
                0x0000000020000078       0x38 load address 0x0000000008009528
                0x0000000020000078                _log_mpsc_pbuf_list_start = .
 *(SORT_BY_NAME(SORT_BY_ALIGNMENT(._log_mpsc_pbuf.static.*)))
 ._log_mpsc_pbuf.static.log_buffer_
                0x0000000020000078       0x38 zephyr/libzephyr.a(log_core.c.obj)
                0x00000000200000b0                _log_mpsc_pbuf_list_end = .

log_msg_ptr_area
                0x00000000200000b0        0x4 load address 0x0000000008009560
                0x00000000200000b0                _log_msg_ptr_list_start = .
 *(SORT_BY_NAME(SORT_BY_ALIGNMENT(._log_msg_ptr.static.*)))
 ._log_msg_ptr.static.log_msg_ptr_
                0x00000000200000b0        0x4 zephyr/libzephyr.a(log_core.c.obj)
                0x00000000200000b4                _log_msg_ptr_list_end = .

log_dynamic_area
                0x00000000200000b4        0x0 load address 0x0000000008009564
                0x00000000200000b4                _log_dynamic_list_start = .
 *(SORT_BY_NAME(SORT_BY_ALIGNMENT(._log_dynamic.static.*)))
                0x00000000200000b4                _log_dynamic_list_end = .

k_timer_area    0x00000000200000b4        0x0 load address 0x0000000008009564
                0x00000000200000b4                _k_timer_list_start = .
 *(SORT_BY_NAME(SORT_BY_ALIGNMENT(._k_timer.static.*)))
                0x00000000200000b4                _k_timer_list_end = .

k_mem_slab_area
                0x00000000200000b4        0x0 load address 0x0000000008009564
                0x00000000200000b4                _k_mem_slab_list_start = .
 *(SORT_BY_NAME(SORT_BY_ALIGNMENT(._k_mem_slab.static.*)))
                0x00000000200000b4                _k_mem_slab_list_end = .

k_heap_area     0x00000000200000b4        0x0 load address 0x0000000008009564
                0x00000000200000b4                _k_heap_list_start = .
 *(SORT_BY_NAME(SORT_BY_ALIGNMENT(._k_heap.static.*)))
                0x00000000200000b4                _k_heap_list_end = .

k_mutex_area    0x00000000200000b4       0x28 load address 0x0000000008009564
                0x00000000200000b4                _k_mutex_list_start = .
 *(SORT_BY_NAME(SORT_BY_ALIGNMENT(._k_mutex.static.*)))
 ._k_mutex.static.i2c_mutex_
                0x00000000200000b4       0x14 app/libapp.a(main.c.obj)
                0x00000000200000b4                i2c_mutex
 ._k_mutex.static.robot_mutex_
                0x00000000200000c8       0x14 app/libapp.a(main.c.obj)
                0x00000000200000c8                robot_mutex
                0x00000000200000dc                _k_mutex_list_end = .

k_stack_area    0x00000000200000dc        0x0 load address 0x000000000800958c
                0x00000000200000dc                _k_stack_list_start = .
 *(SORT_BY_NAME(SORT_BY_ALIGNMENT(._k_stack.static.*)))
                0x00000000200000dc                _k_stack_list_end = .

k_msgq_area     0x00000000200000dc        0x0 load address 0x000000000800958c
                0x00000000200000dc                _k_msgq_list_start = .
 *(SORT_BY_NAME(SORT_BY_ALIGNMENT(._k_msgq.static.*)))
                0x00000000200000dc                _k_msgq_list_end = .

k_mbox_area     0x00000000200000dc        0x0 load address 0x000000000800958c
                0x00000000200000dc                _k_mbox_list_start = .
 *(SORT_BY_NAME(SORT_BY_ALIGNMENT(._k_mbox.static.*)))
                0x00000000200000dc                _k_mbox_list_end = .

k_pipe_area     0x00000000200000dc        0x0 load address 0x000000000800958c
                0x00000000200000dc                _k_pipe_list_start = .
 *(SORT_BY_NAME(SORT_BY_ALIGNMENT(._k_pipe.static.*)))
                0x00000000200000dc                _k_pipe_list_end = .

k_sem_area      0x00000000200000dc       0x10 load address 0x000000000800958c
                0x00000000200000dc                _k_sem_list_start = .
 *(SORT_BY_NAME(SORT_BY_ALIGNMENT(._k_sem.static.*)))
 ._k_sem.static.log_process_thread_sem_
                0x00000000200000dc       0x10 zephyr/libzephyr.a(log_core.c.obj)
                0x00000000200000dc                log_process_thread_sem
                0x00000000200000ec                _k_sem_list_end = .

k_event_area    0x00000000200000ec        0x0 load address 0x000000000800959c
                0x00000000200000ec                _k_event_list_start = .
 *(SORT_BY_NAME(SORT_BY_ALIGNMENT(._k_event.static.*)))
                0x00000000200000ec                _k_event_list_end = .

k_queue_area    0x00000000200000ec        0x0 load address 0x000000000800959c
                0x00000000200000ec                _k_queue_list_start = .
 *(SORT_BY_NAME(SORT_BY_ALIGNMENT(._k_queue.static.*)))
                0x00000000200000ec                _k_queue_list_end = .

k_fifo_area     0x00000000200000ec        0x0 load address 0x000000000800959c
                0x00000000200000ec                _k_fifo_list_start = .
 *(SORT_BY_NAME(SORT_BY_ALIGNMENT(._k_fifo.static.*)))
                0x00000000200000ec                _k_fifo_list_end = .

k_lifo_area     0x00000000200000ec        0x0 load address 0x000000000800959c
                0x00000000200000ec                _k_lifo_list_start = .
 *(SORT_BY_NAME(SORT_BY_ALIGNMENT(._k_lifo.static.*)))
                0x00000000200000ec                _k_lifo_list_end = .

k_condvar_area  0x00000000200000ec        0x0 load address 0x000000000800959c
                0x00000000200000ec                _k_condvar_list_start = .
 *(SORT_BY_NAME(SORT_BY_ALIGNMENT(._k_condvar.static.*)))
                0x00000000200000ec                _k_condvar_list_end = .

sys_mem_blocks_ptr_area
                0x00000000200000ec        0x0 load address 0x000000000800959c
                0x00000000200000ec                _sys_mem_blocks_ptr_list_start = .
 *(SORT_BY_NAME(SORT_BY_ALIGNMENT(._sys_mem_blocks_ptr.static.*)))
                0x00000000200000ec                _sys_mem_blocks_ptr_list_end = .

net_buf_pool_area
                0x00000000200000ec        0x0 load address 0x000000000800959c
                0x00000000200000ec                _net_buf_pool_list_start = .
 *(SORT_BY_NAME(SORT_BY_ALIGNMENT(._net_buf_pool.static.*)))
                0x00000000200000ec                _net_buf_pool_list_end = .
                0x00000000200000ec                __data_region_end = .

bss             0x00000000200000f0      0x8f1
                0x00000000200000f0                . = ALIGN (0x4)
                0x00000000200000f0                __bss_start = .
                0x00000000200000f0                __kernel_ram_start = .
 *(SORT_BY_ALIGNMENT(.bss))
 *(SORT_BY_ALIGNMENT(.bss.*))
 .bss._k_thread_obj_thread_pid_id
                0x00000000200000f0       0x70 app/libapp.a(main.c.obj)
                0x00000000200000f0                _k_thread_obj_thread_pid_id
 .bss._k_thread_obj_thread_capteurs_id
                0x0000000020000160       0x70 app/libapp.a(main.c.obj)
                0x0000000020000160                _k_thread_obj_thread_capteurs_id
 .bss.logging_thread
                0x00000000200001d0       0x70 zephyr/libzephyr.a(log_core.c.obj)
                0x00000000200001d0                logging_thread
 .bss.buf32     0x0000000020000240      0x400 zephyr/libzephyr.a(log_core.c.obj)
 .bss.last_failure_report
                0x0000000020000640        0x8 zephyr/libzephyr.a(log_core.c.obj)
 .bss.log_process_thread_timer
                0x0000000020000648       0x38 zephyr/libzephyr.a(log_core.c.obj)
 .bss.announced_cycles
                0x0000000020000680        0x8 zephyr/drivers/timer/libdrivers__timer.a(cortex_m_systick.c.obj)
 .bss.cycle_count
                0x0000000020000688        0x8 zephyr/drivers/timer/libdrivers__timer.a(cortex_m_systick.c.obj)
 .bss.z_idle_threads
                0x0000000020000690       0x70 zephyr/kernel/libkernel.a(init.c.obj)
                0x0000000020000690                z_idle_threads
 .bss.z_main_thread
                0x0000000020000700       0x70 zephyr/kernel/libkernel.a(init.c.obj)
                0x0000000020000700                z_main_thread
 .bss._thread_dummy
                0x0000000020000770       0x70 zephyr/kernel/libkernel.a(sched.c.obj)
                0x0000000020000770                _thread_dummy
 .bss.slice_timeouts
                0x00000000200007e0       0x18 zephyr/kernel/libkernel.a(timeslicing.c.obj)
 .bss.curr_tick
                0x00000000200007f8        0x8 zephyr/kernel/libkernel.a(timeout.c.obj)
 .bss.mon_pid   0x0000000020000800       0x14 app/libapp.a(main.c.obj)
                0x0000000020000800                mon_pid
 .bss.etat_robot
                0x0000000020000814        0x8 app/libapp.a(main.c.obj)
                0x0000000020000814                etat_robot
 .bss.compte    0x000000002000081c        0x4 app/libapp.a(codeur.c.obj)
 .bss.codeur_cb
                0x0000000020000820        0xc app/libapp.a(codeur.c.obj)
 .bss.derniere_valeur.0
                0x000000002000082c        0x4 app/libapp.a(boussole.c.obj)
 .bss.curr_log_buffer
                0x0000000020000830        0x4 zephyr/libzephyr.a(log_core.c.obj)
 .bss.proc_tid  0x0000000020000834        0x4 zephyr/libzephyr.a(log_core.c.obj)
 .bss.dropped_cnt
                0x0000000020000838        0x4 zephyr/libzephyr.a(log_core.c.obj)
 .bss.buffered_cnt
                0x000000002000083c        0x4 zephyr/libzephyr.a(log_core.c.obj)
 .bss.initialized
                0x0000000020000840        0x4 zephyr/libzephyr.a(log_core.c.obj)
 .bss.timestamp_div
                0x0000000020000844        0x4 zephyr/libzephyr.a(log_output.c.obj)
 .bss.freq      0x0000000020000848        0x4 zephyr/libzephyr.a(log_output.c.obj)
 .bss.lbu_data  0x000000002000084c       0x18 zephyr/libzephyr.a(log_backend_uart.c.obj)
 .bss.lbu_output_control_block
                0x0000000020000864        0xc zephyr/libzephyr.a(log_backend_uart.c.obj)
 .bss.z_arm_tls_ptr
                0x0000000020000870        0x4 zephyr/arch/arch/arm/core/libarch__arm__core.a(tls.c.obj)
                0x0000000020000870                z_arm_tls_ptr
 .bss._stdout_hook
                0x0000000020000874        0x4 zephyr/lib/libc/picolibc/liblib__libc__picolibc.a(libc-hooks.c.obj)
 .bss.z_malloc_heap
                0x0000000020000878        0xc zephyr/lib/libc/common/liblib__libc__common.a(malloc.c.obj)
 .bss.exti_data
                0x0000000020000884       0x80 zephyr/drivers/interrupt_controller/libdrivers__interrupt_controller.a(intc_exti_stm32.c.obj)
 .bss.gpio_stm32_data_e
                0x0000000020000904       0x10 zephyr/drivers/gpio/libdrivers__gpio.a(gpio_stm32.c.obj)
 .bss.gpio_stm32_data_d
                0x0000000020000914       0x10 zephyr/drivers/gpio/libdrivers__gpio.a(gpio_stm32.c.obj)
 .bss.gpio_stm32_data_c
                0x0000000020000924       0x10 zephyr/drivers/gpio/libdrivers__gpio.a(gpio_stm32.c.obj)
 .bss.gpio_stm32_data_b
                0x0000000020000934       0x10 zephyr/drivers/gpio/libdrivers__gpio.a(gpio_stm32.c.obj)
 .bss.gpio_stm32_data_a
                0x0000000020000944       0x10 zephyr/drivers/gpio/libdrivers__gpio.a(gpio_stm32.c.obj)
 .bss.i2c_stm32_dev_data_0
                0x0000000020000954       0x50 zephyr/drivers/i2c/libdrivers__i2c.a(i2c_ll_stm32.c.obj)
 .bss.overflow_cyc
                0x00000000200009a4        0x4 zephyr/drivers/timer/libdrivers__timer.a(cortex_m_systick.c.obj)
 .bss.last_load
                0x00000000200009a8        0x4 zephyr/drivers/timer/libdrivers__timer.a(cortex_m_systick.c.obj)
 .bss._kernel   0x00000000200009ac       0x20 zephyr/kernel/libkernel.a(init.c.obj)
                0x00000000200009ac                _kernel
 .bss.pending_current
                0x00000000200009cc        0x4 zephyr/kernel/libkernel.a(timeslicing.c.obj)
                0x00000000200009cc                pending_current
 .bss.slice_max_prio
                0x00000000200009d0        0x4 zephyr/kernel/libkernel.a(timeslicing.c.obj)
 .bss.slice_ticks
                0x00000000200009d4        0x4 zephyr/kernel/libkernel.a(timeslicing.c.obj)
 .bss.announce_remaining
                0x00000000200009d8        0x4 zephyr/kernel/libkernel.a(timeout.c.obj)
 .bss.backend_attached
                0x00000000200009dc        0x1 zephyr/libzephyr.a(log_core.c.obj)
 .bss.panic_mode
                0x00000000200009dd        0x1 zephyr/libzephyr.a(log_core.c.obj)
 .bss.lbu_buffer
                0x00000000200009de        0x1 zephyr/libzephyr.a(log_backend_uart.c.obj)
 .bss.z_sys_post_kernel
                0x00000000200009df        0x1 zephyr/kernel/libkernel.a(init.c.obj)
                0x00000000200009df                z_sys_post_kernel
 .bss.lock      0x00000000200009e0        0x0 zephyr/kernel/libkernel.a(mutex.c.obj)
 .bss.lock      0x00000000200009e0        0x0 zephyr/kernel/libkernel.a(sem.c.obj)
 .bss._sched_spinlock
                0x00000000200009e0        0x0 zephyr/kernel/libkernel.a(sched.c.obj)
                0x00000000200009e0                _sched_spinlock
 .bss.slice_expired
                0x00000000200009e0        0x1 zephyr/kernel/libkernel.a(timeslicing.c.obj)
 *(SORT_BY_ALIGNMENT(COMMON))
 *(SORT_BY_ALIGNMENT(.kernel_bss.*))
                0x00000000200009e4                __bss_end = ALIGN (0x4)

noinit          0x00000000200009e8     0x1800
 *(SORT_BY_ALIGNMENT(.noinit))
 *(SORT_BY_ALIGNMENT(.noinit.*))
 .noinit."CMAKE_SOURCE_DIR/src/main.c".1
                0x00000000200009e8      0x400 app/libapp.a(main.c.obj)
                0x00000000200009e8                _k_thread_stack_thread_pid_id
 .noinit."CMAKE_SOURCE_DIR/src/main.c".0
                0x0000000020000de8      0x400 app/libapp.a(main.c.obj)
                0x0000000020000de8                _k_thread_stack_thread_capteurs_id
 .noinit."WEST_TOPDIR/zephyr/subsys/logging/log_core.c".0
                0x00000000200011e8      0x300 zephyr/libzephyr.a(log_core.c.obj)
                0x00000000200011e8                logging_stack
 .noinit."WEST_TOPDIR/zephyr/kernel/init.c".2
                0x00000000200014e8      0x800 zephyr/kernel/libkernel.a(init.c.obj)
                0x00000000200014e8                z_interrupt_stacks
 .noinit."WEST_TOPDIR/zephyr/kernel/init.c".1
                0x0000000020001ce8      0x100 zephyr/kernel/libkernel.a(init.c.obj)
 .noinit."WEST_TOPDIR/zephyr/kernel/init.c".0
                0x0000000020001de8      0x400 zephyr/kernel/libkernel.a(init.c.obj)
                0x0000000020001de8                z_main_stack
 *(SORT_BY_ALIGNMENT(.kernel_noinit.*))
                0x0000000020005000                __kernel_ram_end = 0x20005000
                0x0000000000004f10                __kernel_ram_size = (__kernel_ram_end - __kernel_ram_start)

.intList        0x00000000ffff8000       0x98
 *(SORT_BY_ALIGNMENT(.irq_info*))
 .irq_info      0x00000000ffff8000        0x8 zephyr/arch/common/libisr_tables.a(isr_tables.c.obj)
                0x00000000ffff8000                _iheader
 *(SORT_BY_ALIGNMENT(.intList*))
 .intList       0x00000000ffff8008       0x70 zephyr/drivers/interrupt_controller/libdrivers__interrupt_controller.a(intc_exti_stm32.c.obj)
 .intList       0x00000000ffff8078       0x20 zephyr/drivers/i2c/libdrivers__i2c.a(i2c_ll_stm32.c.obj)

.last_ram_section
                0x00000000200021e8        0x0
                0x00000000200021e8                _image_ram_end = .
                0x00000000000021e8                _image_ram_size = (_image_ram_end - _image_ram_start)
                0x00000000200021e8                _end = .
                0x00000000200021e8                z_mapped_end = .

.stab
 *(SORT_BY_ALIGNMENT(.stab))

.stabstr
 *(SORT_BY_ALIGNMENT(.stabstr))

.stab.excl
 *(SORT_BY_ALIGNMENT(.stab.excl))

.stab.exclstr
 *(SORT_BY_ALIGNMENT(.stab.exclstr))

.stab.index
 *(SORT_BY_ALIGNMENT(.stab.index))

.stab.indexstr
 *(SORT_BY_ALIGNMENT(.stab.indexstr))

.gnu.build.attributes
 *(SORT_BY_ALIGNMENT(.gnu.build.attributes) SORT_BY_ALIGNMENT(.gnu.build.attributes.*))

.comment        0x0000000000000000       0x20
 *(SORT_BY_ALIGNMENT(.comment))
 .comment       0x0000000000000000       0x20 zephyr/CMakeFiles/offsets.dir/./arch/arm/core/offsets/offsets.c.obj
                                         0x21 (size before relaxing)
 .comment       0x0000000000000020       0x21 app/libapp.a(main.c.obj)
 .comment       0x0000000000000020       0x21 app/libapp.a(moteur.c.obj)
 .comment       0x0000000000000020       0x21 app/libapp.a(codeur.c.obj)
 .comment       0x0000000000000020       0x21 app/libapp.a(boussole.c.obj)
 .comment       0x0000000000000020       0x21 app/libapp.a(pid.c.obj)
 .comment       0x0000000000000020       0x21 zephyr/libzephyr.a(heap.c.obj)
 .comment       0x0000000000000020       0x21 zephyr/libzephyr.a(cbprintf_packaged.c.obj)
 .comment       0x0000000000000020       0x21 zephyr/libzephyr.a(printk.c.obj)
 .comment       0x0000000000000020       0x21 zephyr/libzephyr.a(thread_entry.c.obj)
 .comment       0x0000000000000020       0x21 zephyr/libzephyr.a(mpsc_pbuf.c.obj)
 .comment       0x0000000000000020       0x21 zephyr/libzephyr.a(configs.c.obj)
 .comment       0x0000000000000020       0x21 zephyr/libzephyr.a(soc_config.c.obj)
 .comment       0x0000000000000020       0x21 zephyr/libzephyr.a(soc.c.obj)
 .comment       0x0000000000000020       0x21 zephyr/libzephyr.a(log_core.c.obj)
 .comment       0x0000000000000020       0x21 zephyr/libzephyr.a(log_mgmt.c.obj)
 .comment       0x0000000000000020       0x21 zephyr/libzephyr.a(log_msg.c.obj)
 .comment       0x0000000000000020       0x21 zephyr/libzephyr.a(log_output.c.obj)
 .comment       0x0000000000000020       0x21 zephyr/libzephyr.a(log_backend_uart.c.obj)
 .comment       0x0000000000000020       0x21 zephyr/arch/arch/arm/core/libarch__arm__core.a(fatal.c.obj)
 .comment       0x0000000000000020       0x21 zephyr/arch/arch/arm/core/libarch__arm__core.a(nmi.c.obj)
 .comment       0x0000000000000020       0x21 zephyr/arch/arch/arm/core/libarch__arm__core.a(tls.c.obj)
 .comment       0x0000000000000020       0x21 zephyr/arch/arch/arm/core/cortex_m/libarch__arm__core__cortex_m.a(exc_exit.c.obj)
 .comment       0x0000000000000020       0x21 zephyr/arch/arch/arm/core/cortex_m/libarch__arm__core__cortex_m.a(fault.c.obj)
 .comment       0x0000000000000020       0x21 zephyr/arch/arch/arm/core/cortex_m/libarch__arm__core__cortex_m.a(thread_abort.c.obj)
 .comment       0x0000000000000020       0x21 zephyr/arch/arch/arm/core/cortex_m/libarch__arm__core__cortex_m.a(swap.c.obj)
 .comment       0x0000000000000020       0x21 zephyr/arch/arch/arm/core/cortex_m/libarch__arm__core__cortex_m.a(irq_manage.c.obj)
 .comment       0x0000000000000020       0x21 zephyr/arch/arch/arm/core/cortex_m/libarch__arm__core__cortex_m.a(prep_c.c.obj)
 .comment       0x0000000000000020       0x21 zephyr/arch/arch/arm/core/cortex_m/libarch__arm__core__cortex_m.a(thread.c.obj)
 .comment       0x0000000000000020       0x21 zephyr/arch/arch/arm/core/cortex_m/libarch__arm__core__cortex_m.a(cpu_idle.c.obj)
 .comment       0x0000000000000020       0x21 zephyr/arch/arch/arm/core/cortex_m/libarch__arm__core__cortex_m.a(irq_init.c.obj)
 .comment       0x0000000000000020       0x21 zephyr/arch/arch/arm/core/cortex_m/libarch__arm__core__cortex_m.a(isr_wrapper.c.obj)
 .comment       0x0000000000000020       0x21 zephyr/lib/libc/picolibc/liblib__libc__picolibc.a(libc-hooks.c.obj)
 .comment       0x0000000000000020       0x21 zephyr/lib/libc/common/liblib__libc__common.a(malloc.c.obj)
 .comment       0x0000000000000020       0x21 zephyr/drivers/interrupt_controller/libdrivers__interrupt_controller.a(intc_exti_stm32.c.obj)
 .comment       0x0000000000000020       0x21 zephyr/drivers/clock_control/libdrivers__clock_control.a(clock_stm32_ll_common.c.obj)
 .comment       0x0000000000000020       0x21 zephyr/drivers/clock_control/libdrivers__clock_control.a(clock_stm32f1.c.obj)
 .comment       0x0000000000000020       0x21 zephyr/drivers/console/libdrivers__console.a(uart_console.c.obj)
 .comment       0x0000000000000020       0x21 zephyr/drivers/gpio/libdrivers__gpio.a(gpio_stm32.c.obj)
 .comment       0x0000000000000020       0x21 zephyr/drivers/i2c/libdrivers__i2c.a(i2c_common.c.obj)
 .comment       0x0000000000000020       0x21 zephyr/drivers/i2c/libdrivers__i2c.a(i2c_ll_stm32_v1.c.obj)
 .comment       0x0000000000000020       0x21 zephyr/drivers/i2c/libdrivers__i2c.a(i2c_ll_stm32.c.obj)
 .comment       0x0000000000000020       0x21 zephyr/drivers/pinctrl/libdrivers__pinctrl.a(common.c.obj)
 .comment       0x0000000000000020       0x21 zephyr/drivers/pinctrl/libdrivers__pinctrl.a(pinctrl_stm32.c.obj)
 .comment       0x0000000000000020       0x21 zephyr/drivers/reset/libdrivers__reset.a(reset_stm32.c.obj)
 .comment       0x0000000000000020       0x21 zephyr/drivers/serial/libdrivers__serial.a(uart_stm32.c.obj)
 .comment       0x0000000000000020       0x21 zephyr/drivers/timer/libdrivers__timer.a(cortex_m_systick.c.obj)
 .comment       0x0000000000000020       0x21 modules/stm32/stm32cube/lib..__modules__hal__stm32__stm32cube.a(system_stm32f1xx.c.obj)
 .comment       0x0000000000000020       0x21 modules/stm32/stm32cube/lib..__modules__hal__stm32__stm32cube.a(stm32f1xx_hal_rcc.c.obj)
 .comment       0x0000000000000020       0x21 modules/stm32/stm32cube/lib..__modules__hal__stm32__stm32cube.a(stm32f1xx_ll_utils.c.obj)
 .comment       0x0000000000000020       0x21 zephyr/kernel/libkernel.a(device.c.obj)
 .comment       0x0000000000000020       0x21 zephyr/kernel/libkernel.a(fatal.c.obj)
 .comment       0x0000000000000020       0x21 zephyr/kernel/libkernel.a(init.c.obj)
 .comment       0x0000000000000020       0x21 zephyr/kernel/libkernel.a(init_static.c.obj)
 .comment       0x0000000000000020       0x21 zephyr/kernel/libkernel.a(idle.c.obj)
 .comment       0x0000000000000020       0x21 zephyr/kernel/libkernel.a(mutex.c.obj)
 .comment       0x0000000000000020       0x21 zephyr/kernel/libkernel.a(sem.c.obj)
 .comment       0x0000000000000020       0x21 zephyr/kernel/libkernel.a(thread.c.obj)
 .comment       0x0000000000000020       0x21 zephyr/kernel/libkernel.a(sched.c.obj)
 .comment       0x0000000000000020       0x21 zephyr/kernel/libkernel.a(timeslicing.c.obj)
 .comment       0x0000000000000020       0x21 zephyr/kernel/libkernel.a(xip.c.obj)
 .comment       0x0000000000000020       0x21 zephyr/kernel/libkernel.a(timeout.c.obj)
 .comment       0x0000000000000020       0x21 zephyr/kernel/libkernel.a(timer.c.obj)
 .comment       0x0000000000000020       0x21 zephyr/kernel/libkernel.a(banner.c.obj)
 .comment       0x0000000000000020       0x21 zephyr/arch/common/libisr_tables.a(isr_tables.c.obj)

.debug
 *(SORT_BY_ALIGNMENT(.debug))

.line
 *(SORT_BY_ALIGNMENT(.line))

.debug_srcinfo
 *(SORT_BY_ALIGNMENT(.debug_srcinfo))

.debug_sfnames
 *(SORT_BY_ALIGNMENT(.debug_sfnames))

.debug_aranges  0x0000000000000000     0x1468
 *(SORT_BY_ALIGNMENT(.debug_aranges))
 .debug_aranges
                0x0000000000000000       0x20 zephyr/arch/arch/arm/core/libarch__arm__core.a(nmi_on_reset.S.obj)
 .debug_aranges
                0x0000000000000020       0x20 zephyr/arch/arch/arm/core/cortex_m/libarch__arm__core__cortex_m.a(fault_s.S.obj)
 .debug_aranges
                0x0000000000000040       0x20 zephyr/arch/arch/arm/core/cortex_m/libarch__arm__core__cortex_m.a(reset.S.obj)
 .debug_aranges
                0x0000000000000060       0x28 zephyr/arch/arch/arm/core/cortex_m/libarch__arm__core__cortex_m.a(swap_helper.S.obj)
 .debug_aranges
                0x0000000000000088       0x20 zephyr/arch/arch/arm/core/cortex_m/libarch__arm__core__cortex_m.a(__aeabi_read_tp.S.obj)
 .debug_aranges
                0x00000000000000a8       0x20 zephyr/CMakeFiles/offsets.dir/./arch/arm/core/offsets/offsets.c.obj
 .debug_aranges
                0x00000000000000c8       0x48 app/libapp.a(main.c.obj)
 .debug_aranges
                0x0000000000000110       0x30 app/libapp.a(moteur.c.obj)
 .debug_aranges
                0x0000000000000140       0x40 app/libapp.a(codeur.c.obj)
 .debug_aranges
                0x0000000000000180       0x28 app/libapp.a(boussole.c.obj)
 .debug_aranges
                0x00000000000001a8       0x28 app/libapp.a(pid.c.obj)
 .debug_aranges
                0x00000000000001d0       0x88 zephyr/libzephyr.a(heap.c.obj)
 .debug_aranges
                0x0000000000000258       0x40 zephyr/libzephyr.a(cbprintf_packaged.c.obj)
 .debug_aranges
                0x0000000000000298       0x48 zephyr/libzephyr.a(printk.c.obj)
 .debug_aranges
                0x00000000000002e0       0x20 zephyr/libzephyr.a(thread_entry.c.obj)
 .debug_aranges
                0x0000000000000300       0xb0 zephyr/libzephyr.a(mpsc_pbuf.c.obj)
 .debug_aranges
                0x00000000000003b0       0x20 zephyr/libzephyr.a(configs.c.obj)
 .debug_aranges
                0x00000000000003d0       0x20 zephyr/libzephyr.a(soc_config.c.obj)
 .debug_aranges
                0x00000000000003f0       0x20 zephyr/libzephyr.a(soc.c.obj)
 .debug_aranges
                0x0000000000000410      0x170 zephyr/libzephyr.a(log_core.c.obj)
 .debug_aranges
                0x0000000000000580       0xb8 zephyr/libzephyr.a(log_mgmt.c.obj)
 .debug_aranges
                0x0000000000000638       0x60 zephyr/libzephyr.a(log_msg.c.obj)
 .debug_aranges
                0x0000000000000698       0x70 zephyr/libzephyr.a(log_output.c.obj)
 .debug_aranges
                0x0000000000000708       0x48 zephyr/libzephyr.a(log_backend_uart.c.obj)
 .debug_aranges
                0x0000000000000750       0x30 zephyr/arch/arch/arm/core/libarch__arm__core.a(fatal.c.obj)
 .debug_aranges
                0x0000000000000780       0x28 zephyr/arch/arch/arm/core/libarch__arm__core.a(nmi.c.obj)
 .debug_aranges
                0x00000000000007a8       0x20 zephyr/arch/arch/arm/core/libarch__arm__core.a(tls.c.obj)
 .debug_aranges
                0x00000000000007c8       0x20 zephyr/arch/arch/arm/core/cortex_m/libarch__arm__core__cortex_m.a(exc_exit.c.obj)
 .debug_aranges
                0x00000000000007e8       0x48 zephyr/arch/arch/arm/core/cortex_m/libarch__arm__core__cortex_m.a(fault.c.obj)
 .debug_aranges
                0x0000000000000830       0x20 zephyr/arch/arch/arm/core/cortex_m/libarch__arm__core__cortex_m.a(thread_abort.c.obj)
 .debug_aranges
                0x0000000000000850       0x20 zephyr/arch/arch/arm/core/cortex_m/libarch__arm__core__cortex_m.a(swap.c.obj)
 .debug_aranges
                0x0000000000000870       0x40 zephyr/arch/arch/arm/core/cortex_m/libarch__arm__core__cortex_m.a(irq_manage.c.obj)
 .debug_aranges
                0x00000000000008b0       0x20 zephyr/arch/arch/arm/core/cortex_m/libarch__arm__core__cortex_m.a(prep_c.c.obj)
 .debug_aranges
                0x00000000000008d0       0x38 zephyr/arch/arch/arm/core/cortex_m/libarch__arm__core__cortex_m.a(thread.c.obj)
 .debug_aranges
                0x0000000000000908       0x30 zephyr/arch/arch/arm/core/cortex_m/libarch__arm__core__cortex_m.a(cpu_idle.c.obj)
 .debug_aranges
                0x0000000000000938       0x20 zephyr/arch/arch/arm/core/cortex_m/libarch__arm__core__cortex_m.a(irq_init.c.obj)
 .debug_aranges
                0x0000000000000958       0x20 zephyr/arch/arch/arm/core/cortex_m/libarch__arm__core__cortex_m.a(isr_wrapper.c.obj)
 .debug_aranges
                0x0000000000000978       0xb0 zephyr/lib/libc/picolibc/liblib__libc__picolibc.a(libc-hooks.c.obj)
 .debug_aranges
                0x0000000000000a28       0x60 zephyr/lib/libc/common/liblib__libc__common.a(malloc.c.obj)
 .debug_aranges
                0x0000000000000a88       0x58 zephyr/drivers/interrupt_controller/libdrivers__interrupt_controller.a(intc_exti_stm32.c.obj)
 .debug_aranges
                0x0000000000000ae0       0x60 zephyr/drivers/clock_control/libdrivers__clock_control.a(clock_stm32_ll_common.c.obj)
 .debug_aranges
                0x0000000000000b40       0x28 zephyr/drivers/clock_control/libdrivers__clock_control.a(clock_stm32f1.c.obj)
 .debug_aranges
                0x0000000000000b68       0x30 zephyr/drivers/console/libdrivers__console.a(uart_console.c.obj)
 .debug_aranges
                0x0000000000000b98       0x90 zephyr/drivers/gpio/libdrivers__gpio.a(gpio_stm32.c.obj)
 .debug_aranges
                0x0000000000000c28       0x20 zephyr/drivers/i2c/libdrivers__i2c.a(i2c_common.c.obj)
 .debug_aranges
                0x0000000000000c48       0x80 zephyr/drivers/i2c/libdrivers__i2c.a(i2c_ll_stm32_v1.c.obj)
 .debug_aranges
                0x0000000000000cc8       0x50 zephyr/drivers/i2c/libdrivers__i2c.a(i2c_ll_stm32.c.obj)
 .debug_aranges
                0x0000000000000d18       0x20 zephyr/drivers/pinctrl/libdrivers__pinctrl.a(common.c.obj)
 .debug_aranges
                0x0000000000000d38       0x20 zephyr/drivers/pinctrl/libdrivers__pinctrl.a(pinctrl_stm32.c.obj)
 .debug_aranges
                0x0000000000000d58       0x38 zephyr/drivers/reset/libdrivers__reset.a(reset_stm32.c.obj)
 .debug_aranges
                0x0000000000000d90       0x68 zephyr/drivers/serial/libdrivers__serial.a(uart_stm32.c.obj)
 .debug_aranges
                0x0000000000000df8       0x60 zephyr/drivers/timer/libdrivers__timer.a(cortex_m_systick.c.obj)
 .debug_aranges
                0x0000000000000e58       0x28 modules/stm32/stm32cube/lib..__modules__hal__stm32__stm32cube.a(system_stm32f1xx.c.obj)
 .debug_aranges
                0x0000000000000e80       0x88 modules/stm32/stm32cube/lib..__modules__hal__stm32__stm32cube.a(stm32f1xx_hal_rcc.c.obj)
 .debug_aranges
                0x0000000000000f08       0x50 modules/stm32/stm32cube/lib..__modules__hal__stm32__stm32cube.a(stm32f1xx_ll_utils.c.obj)
 .debug_aranges
                0x0000000000000f58       0x38 zephyr/kernel/libkernel.a(device.c.obj)
 .debug_aranges
                0x0000000000000f90       0x38 zephyr/kernel/libkernel.a(fatal.c.obj)
 .debug_aranges
                0x0000000000000fc8       0x68 zephyr/kernel/libkernel.a(init.c.obj)
 .debug_aranges
                0x0000000000001030       0x20 zephyr/kernel/libkernel.a(init_static.c.obj)
 .debug_aranges
                0x0000000000001050       0x28 zephyr/kernel/libkernel.a(idle.c.obj)
 .debug_aranges
                0x0000000000001078       0x38 zephyr/kernel/libkernel.a(mutex.c.obj)
 .debug_aranges
                0x00000000000010b0       0x38 zephyr/kernel/libkernel.a(sem.c.obj)
 .debug_aranges
                0x00000000000010e8       0x88 zephyr/kernel/libkernel.a(thread.c.obj)
 .debug_aranges
                0x0000000000001170      0x188 zephyr/kernel/libkernel.a(sched.c.obj)
 .debug_aranges
                0x00000000000012f8       0x40 zephyr/kernel/libkernel.a(timeslicing.c.obj)
 .debug_aranges
                0x0000000000001338       0x20 zephyr/kernel/libkernel.a(xip.c.obj)
 .debug_aranges
                0x0000000000001358       0x90 zephyr/kernel/libkernel.a(timeout.c.obj)
 .debug_aranges
                0x00000000000013e8       0x48 zephyr/kernel/libkernel.a(timer.c.obj)
 .debug_aranges
                0x0000000000001430       0x20 zephyr/kernel/libkernel.a(banner.c.obj)
 .debug_aranges
                0x0000000000001450       0x18 zephyr/arch/common/libisr_tables.a(isr_tables.c.obj)

.debug_pubnames
 *(SORT_BY_ALIGNMENT(.debug_pubnames))

.debug_info     0x0000000000000000    0x642f9
 *(SORT_BY_ALIGNMENT(.debug_info) SORT_BY_ALIGNMENT(.gnu.linkonce.wi.*))
 .debug_info    0x0000000000000000       0xdc zephyr/CMakeFiles/offsets.dir/./arch/arm/core/offsets/offsets.c.obj
 .debug_info    0x00000000000000dc     0x10fe app/libapp.a(main.c.obj)
 .debug_info    0x00000000000011da      0xf2b app/libapp.a(moteur.c.obj)
 .debug_info    0x0000000000002105      0xefc app/libapp.a(codeur.c.obj)
 .debug_info    0x0000000000003001     0x12d6 app/libapp.a(boussole.c.obj)
 .debug_info    0x00000000000042d7      0x2a8 app/libapp.a(pid.c.obj)
 .debug_info    0x000000000000457f     0x301b zephyr/libzephyr.a(heap.c.obj)
 .debug_info    0x000000000000759a     0x201b zephyr/libzephyr.a(cbprintf_packaged.c.obj)
 .debug_info    0x00000000000095b5      0x4a4 zephyr/libzephyr.a(printk.c.obj)
 .debug_info    0x0000000000009a59      0x70d zephyr/libzephyr.a(thread_entry.c.obj)
 .debug_info    0x000000000000a166     0x2320 zephyr/libzephyr.a(mpsc_pbuf.c.obj)
 .debug_info    0x000000000000c486       0x38 zephyr/libzephyr.a(configs.c.obj)
 .debug_info    0x000000000000c4be      0x292 zephyr/libzephyr.a(soc_config.c.obj)
 .debug_info    0x000000000000c750      0x2c8 zephyr/libzephyr.a(soc.c.obj)
 .debug_info    0x000000000000ca18     0x440c zephyr/libzephyr.a(log_core.c.obj)
 .debug_info    0x0000000000010e24     0x229c zephyr/libzephyr.a(log_mgmt.c.obj)
 .debug_info    0x00000000000130c0     0x23c7 zephyr/libzephyr.a(log_msg.c.obj)
 .debug_info    0x0000000000015487     0x2061 zephyr/libzephyr.a(log_output.c.obj)
 .debug_info    0x00000000000174e8     0x17e5 zephyr/libzephyr.a(log_backend_uart.c.obj)
 .debug_info    0x0000000000018ccd     0x3495 zephyr/arch/arch/arm/core/libarch__arm__core.a(fatal.c.obj)
 .debug_info    0x000000000001c162      0x1c8 zephyr/arch/arch/arm/core/libarch__arm__core.a(nmi.c.obj)
 .debug_info    0x000000000001c32a       0x23 zephyr/arch/arch/arm/core/libarch__arm__core.a(nmi_on_reset.S.obj)
 .debug_info    0x000000000001c34d      0x6e7 zephyr/arch/arch/arm/core/libarch__arm__core.a(tls.c.obj)
 .debug_info    0x000000000001ca34      0x767 zephyr/arch/arch/arm/core/cortex_m/libarch__arm__core__cortex_m.a(exc_exit.c.obj)
 .debug_info    0x000000000001d19b     0xc01f zephyr/arch/arch/arm/core/cortex_m/libarch__arm__core__cortex_m.a(fault.c.obj)
 .debug_info    0x00000000000291ba       0x23 zephyr/arch/arch/arm/core/cortex_m/libarch__arm__core__cortex_m.a(fault_s.S.obj)
 .debug_info    0x00000000000291dd       0x23 zephyr/arch/arch/arm/core/cortex_m/libarch__arm__core__cortex_m.a(reset.S.obj)
 .debug_info    0x0000000000029200      0x80e zephyr/arch/arch/arm/core/cortex_m/libarch__arm__core__cortex_m.a(thread_abort.c.obj)
 .debug_info    0x0000000000029a0e      0x823 zephyr/arch/arch/arm/core/cortex_m/libarch__arm__core__cortex_m.a(swap.c.obj)
 .debug_info    0x000000000002a231       0x22 zephyr/arch/arch/arm/core/cortex_m/libarch__arm__core__cortex_m.a(swap_helper.S.obj)
 .debug_info    0x000000000002a253      0x8d5 zephyr/arch/arch/arm/core/cortex_m/libarch__arm__core__cortex_m.a(irq_manage.c.obj)
 .debug_info    0x000000000002ab28      0x3d8 zephyr/arch/arch/arm/core/cortex_m/libarch__arm__core__cortex_m.a(prep_c.c.obj)
 .debug_info    0x000000000002af00      0xa49 zephyr/arch/arch/arm/core/cortex_m/libarch__arm__core__cortex_m.a(thread.c.obj)
 .debug_info    0x000000000002b949      0x48b zephyr/arch/arch/arm/core/cortex_m/libarch__arm__core__cortex_m.a(cpu_idle.c.obj)
 .debug_info    0x000000000002bdd4      0x58a zephyr/arch/arch/arm/core/cortex_m/libarch__arm__core__cortex_m.a(irq_init.c.obj)
 .debug_info    0x000000000002c35e      0x1a3 zephyr/arch/arch/arm/core/cortex_m/libarch__arm__core__cortex_m.a(isr_wrapper.c.obj)
 .debug_info    0x000000000002c501       0x23 zephyr/arch/arch/arm/core/cortex_m/libarch__arm__core__cortex_m.a(__aeabi_read_tp.S.obj)
 .debug_info    0x000000000002c524      0xf31 zephyr/lib/libc/picolibc/liblib__libc__picolibc.a(libc-hooks.c.obj)
 .debug_info    0x000000000002d455      0xdbd zephyr/lib/libc/common/liblib__libc__common.a(malloc.c.obj)
 .debug_info    0x000000000002e212      0xefc zephyr/drivers/interrupt_controller/libdrivers__interrupt_controller.a(intc_exti_stm32.c.obj)
 .debug_info    0x000000000002f10e     0x103a zephyr/drivers/clock_control/libdrivers__clock_control.a(clock_stm32_ll_common.c.obj)
 .debug_info    0x0000000000030148      0x22f zephyr/drivers/clock_control/libdrivers__clock_control.a(clock_stm32f1.c.obj)
 .debug_info    0x0000000000030377      0x806 zephyr/drivers/console/libdrivers__console.a(uart_console.c.obj)
 .debug_info    0x0000000000030b7d     0x2a03 zephyr/drivers/gpio/libdrivers__gpio.a(gpio_stm32.c.obj)
 .debug_info    0x0000000000033580     0x2a24 zephyr/drivers/i2c/libdrivers__i2c.a(i2c_common.c.obj)
 .debug_info    0x0000000000035fa4     0x558a zephyr/drivers/i2c/libdrivers__i2c.a(i2c_ll_stm32_v1.c.obj)
 .debug_info    0x000000000003b52e     0x5766 zephyr/drivers/i2c/libdrivers__i2c.a(i2c_ll_stm32.c.obj)
 .debug_info    0x0000000000040c94      0x1b2 zephyr/drivers/pinctrl/libdrivers__pinctrl.a(common.c.obj)
 .debug_info    0x0000000000040e46      0x690 zephyr/drivers/pinctrl/libdrivers__pinctrl.a(pinctrl_stm32.c.obj)
 .debug_info    0x00000000000414d6      0x64b zephyr/drivers/reset/libdrivers__reset.a(reset_stm32.c.obj)
 .debug_info    0x0000000000041b21     0x5393 zephyr/drivers/serial/libdrivers__serial.a(uart_stm32.c.obj)
 .debug_info    0x0000000000046eb4     0x10f6 zephyr/drivers/timer/libdrivers__timer.a(cortex_m_systick.c.obj)
 .debug_info    0x0000000000047faa      0x241 modules/stm32/stm32cube/lib..__modules__hal__stm32__stm32cube.a(system_stm32f1xx.c.obj)
 .debug_info    0x00000000000481eb      0xa83 modules/stm32/stm32cube/lib..__modules__hal__stm32__stm32cube.a(stm32f1xx_hal_rcc.c.obj)
 .debug_info    0x0000000000048c6e      0xbb0 modules/stm32/stm32cube/lib..__modules__hal__stm32__stm32cube.a(stm32f1xx_ll_utils.c.obj)
 .debug_info    0x000000000004981e      0x343 zephyr/kernel/libkernel.a(device.c.obj)
 .debug_info    0x0000000000049b61     0x2d44 zephyr/kernel/libkernel.a(fatal.c.obj)
 .debug_info    0x000000000004c8a5     0x1e09 zephyr/kernel/libkernel.a(init.c.obj)
 .debug_info    0x000000000004e6ae       0x38 zephyr/kernel/libkernel.a(init_static.c.obj)
 .debug_info    0x000000000004e6e6      0x2e7 zephyr/kernel/libkernel.a(idle.c.obj)
 .debug_info    0x000000000004e9cd     0x646f zephyr/kernel/libkernel.a(mutex.c.obj)
 .debug_info    0x0000000000054e3c      0xeb9 zephyr/kernel/libkernel.a(sem.c.obj)
 .debug_info    0x0000000000055cf5     0x2478 zephyr/kernel/libkernel.a(thread.c.obj)
 .debug_info    0x000000000005816d     0x7bcd zephyr/kernel/libkernel.a(sched.c.obj)
 .debug_info    0x000000000005fd3a      0xf2b zephyr/kernel/libkernel.a(timeslicing.c.obj)
 .debug_info    0x0000000000060c65      0x12a zephyr/kernel/libkernel.a(xip.c.obj)
 .debug_info    0x0000000000060d8f     0x1be4 zephyr/kernel/libkernel.a(timeout.c.obj)
 .debug_info    0x0000000000062973     0x16f2 zephyr/kernel/libkernel.a(timer.c.obj)
 .debug_info    0x0000000000064065       0xc5 zephyr/kernel/libkernel.a(banner.c.obj)
 .debug_info    0x000000000006412a      0x1cf zephyr/arch/common/libisr_tables.a(isr_tables.c.obj)

.debug_abbrev   0x0000000000000000     0xe094
 *(SORT_BY_ALIGNMENT(.debug_abbrev))
 .debug_abbrev  0x0000000000000000       0x62 zephyr/CMakeFiles/offsets.dir/./arch/arm/core/offsets/offsets.c.obj
 .debug_abbrev  0x0000000000000062      0x3f2 app/libapp.a(main.c.obj)
 .debug_abbrev  0x0000000000000454      0x409 app/libapp.a(moteur.c.obj)
 .debug_abbrev  0x000000000000085d      0x39b app/libapp.a(codeur.c.obj)
 .debug_abbrev  0x0000000000000bf8      0x3e1 app/libapp.a(boussole.c.obj)
 .debug_abbrev  0x0000000000000fd9      0x126 app/libapp.a(pid.c.obj)
 .debug_abbrev  0x00000000000010ff      0x434 zephyr/libzephyr.a(heap.c.obj)
 .debug_abbrev  0x0000000000001533      0x54e zephyr/libzephyr.a(cbprintf_packaged.c.obj)
 .debug_abbrev  0x0000000000001a81      0x28b zephyr/libzephyr.a(printk.c.obj)
 .debug_abbrev  0x0000000000001d0c      0x2bc zephyr/libzephyr.a(thread_entry.c.obj)
 .debug_abbrev  0x0000000000001fc8      0x5d9 zephyr/libzephyr.a(mpsc_pbuf.c.obj)
 .debug_abbrev  0x00000000000025a1       0x2e zephyr/libzephyr.a(configs.c.obj)
 .debug_abbrev  0x00000000000025cf      0x1ac zephyr/libzephyr.a(soc_config.c.obj)
 .debug_abbrev  0x000000000000277b      0x1a1 zephyr/libzephyr.a(soc.c.obj)
 .debug_abbrev  0x000000000000291c      0x930 zephyr/libzephyr.a(log_core.c.obj)
 .debug_abbrev  0x000000000000324c      0x65c zephyr/libzephyr.a(log_mgmt.c.obj)
 .debug_abbrev  0x00000000000038a8      0x5b0 zephyr/libzephyr.a(log_msg.c.obj)
 .debug_abbrev  0x0000000000003e58      0x5c9 zephyr/libzephyr.a(log_output.c.obj)
 .debug_abbrev  0x0000000000004421      0x496 zephyr/libzephyr.a(log_backend_uart.c.obj)
 .debug_abbrev  0x00000000000048b7      0x3c2 zephyr/arch/arch/arm/core/libarch__arm__core.a(fatal.c.obj)
 .debug_abbrev  0x0000000000004c79       0xf5 zephyr/arch/arch/arm/core/libarch__arm__core.a(nmi.c.obj)
 .debug_abbrev  0x0000000000004d6e       0x14 zephyr/arch/arch/arm/core/libarch__arm__core.a(nmi_on_reset.S.obj)
 .debug_abbrev  0x0000000000004d82      0x2a1 zephyr/arch/arch/arm/core/libarch__arm__core.a(tls.c.obj)
 .debug_abbrev  0x0000000000005023      0x17f zephyr/arch/arch/arm/core/cortex_m/libarch__arm__core__cortex_m.a(exc_exit.c.obj)
 .debug_abbrev  0x00000000000051a2      0x4f7 zephyr/arch/arch/arm/core/cortex_m/libarch__arm__core__cortex_m.a(fault.c.obj)
 .debug_abbrev  0x0000000000005699       0x14 zephyr/arch/arch/arm/core/cortex_m/libarch__arm__core__cortex_m.a(fault_s.S.obj)
 .debug_abbrev  0x00000000000056ad       0x14 zephyr/arch/arch/arm/core/cortex_m/libarch__arm__core__cortex_m.a(reset.S.obj)
 .debug_abbrev  0x00000000000056c1      0x227 zephyr/arch/arch/arm/core/cortex_m/libarch__arm__core__cortex_m.a(thread_abort.c.obj)
 .debug_abbrev  0x00000000000058e8      0x23c zephyr/arch/arch/arm/core/cortex_m/libarch__arm__core__cortex_m.a(swap.c.obj)
 .debug_abbrev  0x0000000000005b24       0x12 zephyr/arch/arch/arm/core/cortex_m/libarch__arm__core__cortex_m.a(swap_helper.S.obj)
 .debug_abbrev  0x0000000000005b36      0x28c zephyr/arch/arch/arm/core/cortex_m/libarch__arm__core__cortex_m.a(irq_manage.c.obj)
 .debug_abbrev  0x0000000000005dc2      0x17d zephyr/arch/arch/arm/core/cortex_m/libarch__arm__core__cortex_m.a(prep_c.c.obj)
 .debug_abbrev  0x0000000000005f3f      0x365 zephyr/arch/arch/arm/core/cortex_m/libarch__arm__core__cortex_m.a(thread.c.obj)
 .debug_abbrev  0x00000000000062a4      0x16f zephyr/arch/arch/arm/core/cortex_m/libarch__arm__core__cortex_m.a(cpu_idle.c.obj)
 .debug_abbrev  0x0000000000006413      0x168 zephyr/arch/arch/arm/core/cortex_m/libarch__arm__core__cortex_m.a(irq_init.c.obj)
 .debug_abbrev  0x000000000000657b      0x136 zephyr/arch/arch/arm/core/cortex_m/libarch__arm__core__cortex_m.a(isr_wrapper.c.obj)
 .debug_abbrev  0x00000000000066b1       0x14 zephyr/arch/arch/arm/core/cortex_m/libarch__arm__core__cortex_m.a(__aeabi_read_tp.S.obj)
 .debug_abbrev  0x00000000000066c5      0x4f8 zephyr/lib/libc/picolibc/liblib__libc__picolibc.a(libc-hooks.c.obj)
 .debug_abbrev  0x0000000000006bbd      0x463 zephyr/lib/libc/common/liblib__libc__common.a(malloc.c.obj)
 .debug_abbrev  0x0000000000007020      0x49a zephyr/drivers/interrupt_controller/libdrivers__interrupt_controller.a(intc_exti_stm32.c.obj)
 .debug_abbrev  0x00000000000074ba      0x533 zephyr/drivers/clock_control/libdrivers__clock_control.a(clock_stm32_ll_common.c.obj)
 .debug_abbrev  0x00000000000079ed      0x145 zephyr/drivers/clock_control/libdrivers__clock_control.a(clock_stm32f1.c.obj)
 .debug_abbrev  0x0000000000007b32      0x399 zephyr/drivers/console/libdrivers__console.a(uart_console.c.obj)
 .debug_abbrev  0x0000000000007ecb      0x5a9 zephyr/drivers/gpio/libdrivers__gpio.a(gpio_stm32.c.obj)
 .debug_abbrev  0x0000000000008474      0x219 zephyr/drivers/i2c/libdrivers__i2c.a(i2c_common.c.obj)
 .debug_abbrev  0x000000000000868d      0x5ec zephyr/drivers/i2c/libdrivers__i2c.a(i2c_ll_stm32_v1.c.obj)
 .debug_abbrev  0x0000000000008c79      0x68b zephyr/drivers/i2c/libdrivers__i2c.a(i2c_ll_stm32.c.obj)
 .debug_abbrev  0x0000000000009304       0xd0 zephyr/drivers/pinctrl/libdrivers__pinctrl.a(common.c.obj)
 .debug_abbrev  0x00000000000093d4      0x30e zephyr/drivers/pinctrl/libdrivers__pinctrl.a(pinctrl_stm32.c.obj)
 .debug_abbrev  0x00000000000096e2      0x289 zephyr/drivers/reset/libdrivers__reset.a(reset_stm32.c.obj)
 .debug_abbrev  0x000000000000996b      0x5f1 zephyr/drivers/serial/libdrivers__serial.a(uart_stm32.c.obj)
 .debug_abbrev  0x0000000000009f5c      0x4e3 zephyr/drivers/timer/libdrivers__timer.a(cortex_m_systick.c.obj)
 .debug_abbrev  0x000000000000a43f      0x13e modules/stm32/stm32cube/lib..__modules__hal__stm32__stm32cube.a(system_stm32f1xx.c.obj)
 .debug_abbrev  0x000000000000a57d      0x2f2 modules/stm32/stm32cube/lib..__modules__hal__stm32__stm32cube.a(stm32f1xx_hal_rcc.c.obj)
 .debug_abbrev  0x000000000000a86f      0x325 modules/stm32/stm32cube/lib..__modules__hal__stm32__stm32cube.a(stm32f1xx_ll_utils.c.obj)
 .debug_abbrev  0x000000000000ab94      0x1bc zephyr/kernel/libkernel.a(device.c.obj)
 .debug_abbrev  0x000000000000ad50      0x4ad zephyr/kernel/libkernel.a(fatal.c.obj)
 .debug_abbrev  0x000000000000b1fd      0x719 zephyr/kernel/libkernel.a(init.c.obj)
 .debug_abbrev  0x000000000000b916       0x2e zephyr/kernel/libkernel.a(init_static.c.obj)
 .debug_abbrev  0x000000000000b944      0x1ee zephyr/kernel/libkernel.a(idle.c.obj)
 .debug_abbrev  0x000000000000bb32      0x49e zephyr/kernel/libkernel.a(mutex.c.obj)
 .debug_abbrev  0x000000000000bfd0      0x405 zephyr/kernel/libkernel.a(sem.c.obj)
 .debug_abbrev  0x000000000000c3d5      0x54a zephyr/kernel/libkernel.a(thread.c.obj)
 .debug_abbrev  0x000000000000c91f      0x6dd zephyr/kernel/libkernel.a(sched.c.obj)
 .debug_abbrev  0x000000000000cffc      0x422 zephyr/kernel/libkernel.a(timeslicing.c.obj)
 .debug_abbrev  0x000000000000d41e       0xbe zephyr/kernel/libkernel.a(xip.c.obj)
 .debug_abbrev  0x000000000000d4dc      0x524 zephyr/kernel/libkernel.a(timeout.c.obj)
 .debug_abbrev  0x000000000000da00      0x4eb zephyr/kernel/libkernel.a(timer.c.obj)
 .debug_abbrev  0x000000000000deeb       0x8f zephyr/kernel/libkernel.a(banner.c.obj)
 .debug_abbrev  0x000000000000df7a      0x11a zephyr/arch/common/libisr_tables.a(isr_tables.c.obj)

.debug_line     0x0000000000000000    0x20dce
 *(SORT_BY_ALIGNMENT(.debug_line) SORT_BY_ALIGNMENT(.debug_line.*) SORT_BY_ALIGNMENT(.debug_line_end))
 .debug_line    0x0000000000000000      0x137 zephyr/CMakeFiles/offsets.dir/./arch/arm/core/offsets/offsets.c.obj
 .debug_line    0x0000000000000137      0x74e app/libapp.a(main.c.obj)
 .debug_line    0x0000000000000885      0x56e app/libapp.a(moteur.c.obj)
 .debug_line    0x0000000000000df3      0x5c5 app/libapp.a(codeur.c.obj)
 .debug_line    0x00000000000013b8      0x666 app/libapp.a(boussole.c.obj)
 .debug_line    0x0000000000001a1e      0x18d app/libapp.a(pid.c.obj)
 .debug_line    0x0000000000001bab     0x1142 zephyr/libzephyr.a(heap.c.obj)
 .debug_line    0x0000000000002ced     0x118b zephyr/libzephyr.a(cbprintf_packaged.c.obj)
 .debug_line    0x0000000000003e78      0x340 zephyr/libzephyr.a(printk.c.obj)
 .debug_line    0x00000000000041b8      0x3e0 zephyr/libzephyr.a(thread_entry.c.obj)
 .debug_line    0x0000000000004598     0x18a9 zephyr/libzephyr.a(mpsc_pbuf.c.obj)
 .debug_line    0x0000000000005e41      0x1fb zephyr/libzephyr.a(configs.c.obj)
 .debug_line    0x000000000000603c      0x268 zephyr/libzephyr.a(soc_config.c.obj)
 .debug_line    0x00000000000062a4      0x26d zephyr/libzephyr.a(soc.c.obj)
 .debug_line    0x0000000000006511     0x16c5 zephyr/libzephyr.a(log_core.c.obj)
 .debug_line    0x0000000000007bd6      0xbe9 zephyr/libzephyr.a(log_mgmt.c.obj)
 .debug_line    0x00000000000087bf      0x8c1 zephyr/libzephyr.a(log_msg.c.obj)
 .debug_line    0x0000000000009080      0xb43 zephyr/libzephyr.a(log_output.c.obj)
 .debug_line    0x0000000000009bc3      0x5d2 zephyr/libzephyr.a(log_backend_uart.c.obj)
 .debug_line    0x000000000000a195      0x64b zephyr/arch/arch/arm/core/libarch__arm__core.a(fatal.c.obj)
 .debug_line    0x000000000000a7e0      0x1d3 zephyr/arch/arch/arm/core/libarch__arm__core.a(nmi.c.obj)
 .debug_line    0x000000000000a9b3       0x70 zephyr/arch/arch/arm/core/libarch__arm__core.a(nmi_on_reset.S.obj)
 .debug_line    0x000000000000aa23      0x40d zephyr/arch/arch/arm/core/libarch__arm__core.a(tls.c.obj)
 .debug_line    0x000000000000ae30      0x336 zephyr/arch/arch/arm/core/cortex_m/libarch__arm__core__cortex_m.a(exc_exit.c.obj)
 .debug_line    0x000000000000b166      0xe3f zephyr/arch/arch/arm/core/cortex_m/libarch__arm__core__cortex_m.a(fault.c.obj)
 .debug_line    0x000000000000bfa5       0x7d zephyr/arch/arch/arm/core/cortex_m/libarch__arm__core__cortex_m.a(fault_s.S.obj)
 .debug_line    0x000000000000c022       0x82 zephyr/arch/arch/arm/core/cortex_m/libarch__arm__core__cortex_m.a(reset.S.obj)
 .debug_line    0x000000000000c0a4      0x409 zephyr/arch/arch/arm/core/cortex_m/libarch__arm__core__cortex_m.a(thread_abort.c.obj)
 .debug_line    0x000000000000c4ad      0x3a0 zephyr/arch/arch/arm/core/cortex_m/libarch__arm__core__cortex_m.a(swap.c.obj)
 .debug_line    0x000000000000c84d       0xcf zephyr/arch/arch/arm/core/cortex_m/libarch__arm__core__cortex_m.a(swap_helper.S.obj)
 .debug_line    0x000000000000c91c      0x3ab zephyr/arch/arch/arm/core/cortex_m/libarch__arm__core__cortex_m.a(irq_manage.c.obj)
 .debug_line    0x000000000000ccc7      0x316 zephyr/arch/arch/arm/core/cortex_m/libarch__arm__core__cortex_m.a(prep_c.c.obj)
 .debug_line    0x000000000000cfdd      0x58f zephyr/arch/arch/arm/core/cortex_m/libarch__arm__core__cortex_m.a(thread.c.obj)
 .debug_line    0x000000000000d56c      0x321 zephyr/arch/arch/arm/core/cortex_m/libarch__arm__core__cortex_m.a(cpu_idle.c.obj)
 .debug_line    0x000000000000d88d      0x245 zephyr/arch/arch/arm/core/cortex_m/libarch__arm__core__cortex_m.a(irq_init.c.obj)
 .debug_line    0x000000000000dad2      0x257 zephyr/arch/arch/arm/core/cortex_m/libarch__arm__core__cortex_m.a(isr_wrapper.c.obj)
 .debug_line    0x000000000000dd29       0x7e zephyr/arch/arch/arm/core/cortex_m/libarch__arm__core__cortex_m.a(__aeabi_read_tp.S.obj)
 .debug_line    0x000000000000dda7      0x760 zephyr/lib/libc/picolibc/liblib__libc__picolibc.a(libc-hooks.c.obj)
 .debug_line    0x000000000000e507      0x6bc zephyr/lib/libc/common/liblib__libc__common.a(malloc.c.obj)
 .debug_line    0x000000000000ebc3      0x734 zephyr/drivers/interrupt_controller/libdrivers__interrupt_controller.a(intc_exti_stm32.c.obj)
 .debug_line    0x000000000000f2f7      0x9f9 zephyr/drivers/clock_control/libdrivers__clock_control.a(clock_stm32_ll_common.c.obj)
 .debug_line    0x000000000000fcf0      0x248 zephyr/drivers/clock_control/libdrivers__clock_control.a(clock_stm32f1.c.obj)
 .debug_line    0x000000000000ff38      0x3ce zephyr/drivers/console/libdrivers__console.a(uart_console.c.obj)
 .debug_line    0x0000000000010306     0x104a zephyr/drivers/gpio/libdrivers__gpio.a(gpio_stm32.c.obj)
 .debug_line    0x0000000000011350      0x2c6 zephyr/drivers/i2c/libdrivers__i2c.a(i2c_common.c.obj)
 .debug_line    0x0000000000011616     0x1263 zephyr/drivers/i2c/libdrivers__i2c.a(i2c_ll_stm32_v1.c.obj)
 .debug_line    0x0000000000012879      0xd97 zephyr/drivers/i2c/libdrivers__i2c.a(i2c_ll_stm32.c.obj)
 .debug_line    0x0000000000013610      0x1e2 zephyr/drivers/pinctrl/libdrivers__pinctrl.a(common.c.obj)
 .debug_line    0x00000000000137f2      0x511 zephyr/drivers/pinctrl/libdrivers__pinctrl.a(pinctrl_stm32.c.obj)
 .debug_line    0x0000000000013d03      0x35b zephyr/drivers/reset/libdrivers__reset.a(reset_stm32.c.obj)
 .debug_line    0x000000000001405e     0x12dc zephyr/drivers/serial/libdrivers__serial.a(uart_stm32.c.obj)
 .debug_line    0x000000000001533a      0x9ff zephyr/drivers/timer/libdrivers__timer.a(cortex_m_systick.c.obj)
 .debug_line    0x0000000000015d39      0x205 modules/stm32/stm32cube/lib..__modules__hal__stm32__stm32cube.a(system_stm32f1xx.c.obj)
 .debug_line    0x0000000000015f3e      0xbd4 modules/stm32/stm32cube/lib..__modules__hal__stm32__stm32cube.a(stm32f1xx_hal_rcc.c.obj)
 .debug_line    0x0000000000016b12      0x838 modules/stm32/stm32cube/lib..__modules__hal__stm32__stm32cube.a(stm32f1xx_ll_utils.c.obj)
 .debug_line    0x000000000001734a      0x373 zephyr/kernel/libkernel.a(device.c.obj)
 .debug_line    0x00000000000176bd      0xa09 zephyr/kernel/libkernel.a(fatal.c.obj)
 .debug_line    0x00000000000180c6      0xcc0 zephyr/kernel/libkernel.a(init.c.obj)
 .debug_line    0x0000000000018d86       0x69 zephyr/kernel/libkernel.a(init_static.c.obj)
 .debug_line    0x0000000000018def      0x33a zephyr/kernel/libkernel.a(idle.c.obj)
 .debug_line    0x0000000000019129      0xa09 zephyr/kernel/libkernel.a(mutex.c.obj)
 .debug_line    0x0000000000019b32      0x808 zephyr/kernel/libkernel.a(sem.c.obj)
 .debug_line    0x000000000001a33a      0xabb zephyr/kernel/libkernel.a(thread.c.obj)
 .debug_line    0x000000000001adf5     0x36d2 zephyr/kernel/libkernel.a(sched.c.obj)
 .debug_line    0x000000000001e4c7      0x714 zephyr/kernel/libkernel.a(timeslicing.c.obj)
 .debug_line    0x000000000001ebdb      0x16e zephyr/kernel/libkernel.a(xip.c.obj)
 .debug_line    0x000000000001ed49     0x1205 zephyr/kernel/libkernel.a(timeout.c.obj)
 .debug_line    0x000000000001ff4e      0xc7b zephyr/kernel/libkernel.a(timer.c.obj)
 .debug_line    0x0000000000020bc9       0xa9 zephyr/kernel/libkernel.a(banner.c.obj)
 .debug_line    0x0000000000020c72      0x15c zephyr/arch/common/libisr_tables.a(isr_tables.c.obj)

.debug_frame    0x0000000000000000     0x35e8
 *(SORT_BY_ALIGNMENT(.debug_frame))
 .debug_frame   0x0000000000000000       0x20 zephyr/CMakeFiles/offsets.dir/./arch/arm/core/offsets/offsets.c.obj
 .debug_frame   0x0000000000000020       0xa8 app/libapp.a(main.c.obj)
 .debug_frame   0x00000000000000c8       0x6c app/libapp.a(moteur.c.obj)
 .debug_frame   0x0000000000000134       0x94 app/libapp.a(codeur.c.obj)
 .debug_frame   0x00000000000001c8       0x58 app/libapp.a(boussole.c.obj)
 .debug_frame   0x0000000000000220       0x44 app/libapp.a(pid.c.obj)
 .debug_frame   0x0000000000000264      0x1d4 zephyr/libzephyr.a(heap.c.obj)
 .debug_frame   0x0000000000000438       0xf4 zephyr/libzephyr.a(cbprintf_packaged.c.obj)
 .debug_frame   0x000000000000052c       0x9c zephyr/libzephyr.a(printk.c.obj)
 .debug_frame   0x00000000000005c8       0x28 zephyr/libzephyr.a(thread_entry.c.obj)
 .debug_frame   0x00000000000005f0      0x290 zephyr/libzephyr.a(mpsc_pbuf.c.obj)
 .debug_frame   0x0000000000000880       0x20 zephyr/libzephyr.a(configs.c.obj)
 .debug_frame   0x00000000000008a0       0x20 zephyr/libzephyr.a(soc_config.c.obj)
 .debug_frame   0x00000000000008c0       0x20 zephyr/libzephyr.a(soc.c.obj)
 .debug_frame   0x00000000000008e0      0x3fc zephyr/libzephyr.a(log_core.c.obj)
 .debug_frame   0x0000000000000cdc      0x1a4 zephyr/libzephyr.a(log_mgmt.c.obj)
 .debug_frame   0x0000000000000e80      0x160 zephyr/libzephyr.a(log_msg.c.obj)
 .debug_frame   0x0000000000000fe0      0x16c zephyr/libzephyr.a(log_output.c.obj)
 .debug_frame   0x000000000000114c       0x94 zephyr/libzephyr.a(log_backend_uart.c.obj)
 .debug_frame   0x00000000000011e0       0x64 zephyr/arch/arch/arm/core/libarch__arm__core.a(fatal.c.obj)
 .debug_frame   0x0000000000001244       0x3c zephyr/arch/arch/arm/core/libarch__arm__core.a(nmi.c.obj)
 .debug_frame   0x0000000000001280       0x30 zephyr/arch/arch/arm/core/libarch__arm__core.a(tls.c.obj)
 .debug_frame   0x00000000000012b0       0x20 zephyr/arch/arch/arm/core/cortex_m/libarch__arm__core__cortex_m.a(exc_exit.c.obj)
 .debug_frame   0x00000000000012d0       0xb0 zephyr/arch/arch/arm/core/cortex_m/libarch__arm__core__cortex_m.a(fault.c.obj)
 .debug_frame   0x0000000000001380       0x20 zephyr/arch/arch/arm/core/cortex_m/libarch__arm__core__cortex_m.a(thread_abort.c.obj)
 .debug_frame   0x00000000000013a0       0x20 zephyr/arch/arch/arm/core/cortex_m/libarch__arm__core__cortex_m.a(swap.c.obj)
 .debug_frame   0x00000000000013c0       0x60 zephyr/arch/arch/arm/core/cortex_m/libarch__arm__core__cortex_m.a(irq_manage.c.obj)
 .debug_frame   0x0000000000001420       0x28 zephyr/arch/arch/arm/core/cortex_m/libarch__arm__core__cortex_m.a(prep_c.c.obj)
 .debug_frame   0x0000000000001448       0x58 zephyr/arch/arch/arm/core/cortex_m/libarch__arm__core__cortex_m.a(thread.c.obj)
 .debug_frame   0x00000000000014a0       0x40 zephyr/arch/arch/arm/core/cortex_m/libarch__arm__core__cortex_m.a(cpu_idle.c.obj)
 .debug_frame   0x00000000000014e0       0x20 zephyr/arch/arch/arm/core/cortex_m/libarch__arm__core__cortex_m.a(irq_init.c.obj)
 .debug_frame   0x0000000000001500       0x2c zephyr/arch/arch/arm/core/cortex_m/libarch__arm__core__cortex_m.a(isr_wrapper.c.obj)
 .debug_frame   0x000000000000152c      0x190 zephyr/lib/libc/picolibc/liblib__libc__picolibc.a(libc-hooks.c.obj)
 .debug_frame   0x00000000000016bc       0xf0 zephyr/lib/libc/common/liblib__libc__common.a(malloc.c.obj)
 .debug_frame   0x00000000000017ac       0xc0 zephyr/drivers/interrupt_controller/libdrivers__interrupt_controller.a(intc_exti_stm32.c.obj)
 .debug_frame   0x000000000000186c       0xcc zephyr/drivers/clock_control/libdrivers__clock_control.a(clock_stm32_ll_common.c.obj)
 .debug_frame   0x0000000000001938       0x30 zephyr/drivers/clock_control/libdrivers__clock_control.a(clock_stm32f1.c.obj)
 .debug_frame   0x0000000000001968       0x54 zephyr/drivers/console/libdrivers__console.a(uart_console.c.obj)
 .debug_frame   0x00000000000019bc      0x188 zephyr/drivers/gpio/libdrivers__gpio.a(gpio_stm32.c.obj)
 .debug_frame   0x0000000000001b44       0x20 zephyr/drivers/i2c/libdrivers__i2c.a(i2c_common.c.obj)
 .debug_frame   0x0000000000001b64      0x168 zephyr/drivers/i2c/libdrivers__i2c.a(i2c_ll_stm32_v1.c.obj)
 .debug_frame   0x0000000000001ccc       0xec zephyr/drivers/i2c/libdrivers__i2c.a(i2c_ll_stm32.c.obj)
 .debug_frame   0x0000000000001db8       0x2c zephyr/drivers/pinctrl/libdrivers__pinctrl.a(common.c.obj)
 .debug_frame   0x0000000000001de4       0x3c zephyr/drivers/pinctrl/libdrivers__pinctrl.a(pinctrl_stm32.c.obj)
 .debug_frame   0x0000000000001e20       0x6c zephyr/drivers/reset/libdrivers__reset.a(reset_stm32.c.obj)
 .debug_frame   0x0000000000001e8c      0x120 zephyr/drivers/serial/libdrivers__serial.a(uart_stm32.c.obj)
 .debug_frame   0x0000000000001fac       0xe4 zephyr/drivers/timer/libdrivers__timer.a(cortex_m_systick.c.obj)
 .debug_frame   0x0000000000002090       0x30 modules/stm32/stm32cube/lib..__modules__hal__stm32__stm32cube.a(system_stm32f1xx.c.obj)
 .debug_frame   0x00000000000020c0      0x13c modules/stm32/stm32cube/lib..__modules__hal__stm32__stm32cube.a(stm32f1xx_hal_rcc.c.obj)
 .debug_frame   0x00000000000021fc       0xc8 modules/stm32/stm32cube/lib..__modules__hal__stm32__stm32cube.a(stm32f1xx_ll_utils.c.obj)
 .debug_frame   0x00000000000022c4       0x5c zephyr/kernel/libkernel.a(device.c.obj)
 .debug_frame   0x0000000000002320       0x7c zephyr/kernel/libkernel.a(fatal.c.obj)
 .debug_frame   0x000000000000239c      0x114 zephyr/kernel/libkernel.a(init.c.obj)
 .debug_frame   0x00000000000024b0       0x20 zephyr/kernel/libkernel.a(init_static.c.obj)
 .debug_frame   0x00000000000024d0       0x38 zephyr/kernel/libkernel.a(idle.c.obj)
 .debug_frame   0x0000000000002508       0x74 zephyr/kernel/libkernel.a(mutex.c.obj)
 .debug_frame   0x000000000000257c       0x8c zephyr/kernel/libkernel.a(sem.c.obj)
 .debug_frame   0x0000000000002608      0x148 zephyr/kernel/libkernel.a(thread.c.obj)
 .debug_frame   0x0000000000002750      0x4e4 zephyr/kernel/libkernel.a(sched.c.obj)
 .debug_frame   0x0000000000002c34       0x8c zephyr/kernel/libkernel.a(timeslicing.c.obj)
 .debug_frame   0x0000000000002cc0       0x2c zephyr/kernel/libkernel.a(xip.c.obj)
 .debug_frame   0x0000000000002cec      0x1ac zephyr/kernel/libkernel.a(timeout.c.obj)
 .debug_frame   0x0000000000002e98       0xb8 zephyr/kernel/libkernel.a(timer.c.obj)
 .debug_frame   0x0000000000002f50       0x20 zephyr/kernel/libkernel.a(banner.c.obj)
 .debug_frame   0x0000000000002f70       0xac /home/romain/zephyr-sdk-0.16.1/arm-zephyr-eabi/bin/../lib/gcc/arm-zephyr-eabi/12.2.0/thumb/v7-m/nofp/libgcc.a(_arm_addsubdf3.o)
 .debug_frame   0x000000000000301c       0x4c /home/romain/zephyr-sdk-0.16.1/arm-zephyr-eabi/bin/../lib/gcc/arm-zephyr-eabi/12.2.0/thumb/v7-m/nofp/libgcc.a(_arm_addsubsf3.o)
 .debug_frame   0x0000000000003068       0x38 /home/romain/zephyr-sdk-0.16.1/arm-zephyr-eabi/bin/../lib/gcc/arm-zephyr-eabi/12.2.0/thumb/v7-m/nofp/libgcc.a(_arm_muldivsf3.o)
 .debug_frame   0x00000000000030a0       0xc8 /home/romain/zephyr-sdk-0.16.1/arm-zephyr-eabi/bin/../lib/gcc/arm-zephyr-eabi/12.2.0/thumb/v7-m/nofp/libgcc.a(_arm_cmpsf2.o)
 .debug_frame   0x0000000000003168       0x24 /home/romain/zephyr-sdk-0.16.1/arm-zephyr-eabi/bin/../lib/gcc/arm-zephyr-eabi/12.2.0/thumb/v7-m/nofp/libgcc.a(_arm_fixsfsi.o)
 .debug_frame   0x000000000000318c       0x2c /home/romain/zephyr-sdk-0.16.1/arm-zephyr-eabi/bin/../lib/gcc/arm-zephyr-eabi/12.2.0/thumb/v7-m/nofp/libgcc.a(_aeabi_uldivmod.o)
 .debug_frame   0x00000000000031b8       0x34 /home/romain/zephyr-sdk-0.16.1/arm-zephyr-eabi/bin/../lib/gcc/arm-zephyr-eabi/12.2.0/thumb/v7-m/nofp/libgcc.a(_udivmoddi4.o)
 .debug_frame   0x00000000000031ec       0x28 /home/romain/zephyr-sdk-0.16.1/arm-zephyr-eabi/bin/../lib/gcc/../../picolibc/arm-zephyr-eabi/lib/thumb/v7-m/nofp/libc.a(libc_string_strnlen.c.o)
 .debug_frame   0x0000000000003214       0x44 /home/romain/zephyr-sdk-0.16.1/arm-zephyr-eabi/bin/../lib/gcc/../../picolibc/arm-zephyr-eabi/lib/thumb/v7-m/nofp/libc.a(libc_tinystdio_snprintf.c.o)
 .debug_frame   0x0000000000003258       0x84 /home/romain/zephyr-sdk-0.16.1/arm-zephyr-eabi/bin/../lib/gcc/../../picolibc/arm-zephyr-eabi/lib/thumb/v7-m/nofp/libc.a(libc_tinystdio_vfprintf.c.o)
 .debug_frame   0x00000000000032dc       0x88 /home/romain/zephyr-sdk-0.16.1/arm-zephyr-eabi/bin/../lib/gcc/../../picolibc/arm-zephyr-eabi/lib/thumb/v7-m/nofp/libc.a(libc_tinystdio_dtoa_ryu.c.o)
 .debug_frame   0x0000000000003364       0x8c /home/romain/zephyr-sdk-0.16.1/arm-zephyr-eabi/bin/../lib/gcc/../../picolibc/arm-zephyr-eabi/lib/thumb/v7-m/nofp/libc.a(libc_tinystdio_ryu_table.c.o)
 .debug_frame   0x00000000000033f0       0x30 /home/romain/zephyr-sdk-0.16.1/arm-zephyr-eabi/bin/../lib/gcc/../../picolibc/arm-zephyr-eabi/lib/thumb/v7-m/nofp/libc.a(libc_tinystdio_ryu_log10.c.o)
 .debug_frame   0x0000000000003420       0x20 /home/romain/zephyr-sdk-0.16.1/arm-zephyr-eabi/bin/../lib/gcc/../../picolibc/arm-zephyr-eabi/lib/thumb/v7-m/nofp/libc.a(libc_tinystdio_ryu_pow5bits.c.o)
 .debug_frame   0x0000000000003440       0x50 /home/romain/zephyr-sdk-0.16.1/arm-zephyr-eabi/bin/../lib/gcc/../../picolibc/arm-zephyr-eabi/lib/thumb/v7-m/nofp/libc.a(libc_tinystdio_ryu_umul128.c.o)
 .debug_frame   0x0000000000003490       0x3c /home/romain/zephyr-sdk-0.16.1/arm-zephyr-eabi/bin/../lib/gcc/../../picolibc/arm-zephyr-eabi/lib/thumb/v7-m/nofp/libc.a(libm_math_sf_atan2.c.o)
 .debug_frame   0x00000000000034cc       0x3c /home/romain/zephyr-sdk-0.16.1/arm-zephyr-eabi/bin/../lib/gcc/../../picolibc/arm-zephyr-eabi/lib/thumb/v7-m/nofp/libc.a(libm_math_sf_fmod.c.o)
 .debug_frame   0x0000000000003508       0x20 /home/romain/zephyr-sdk-0.16.1/arm-zephyr-eabi/bin/../lib/gcc/../../picolibc/arm-zephyr-eabi/lib/thumb/v7-m/nofp/libc.a(libm_common_sf_fpclassify.c.o)
 .debug_frame   0x0000000000003528       0x28 /home/romain/zephyr-sdk-0.16.1/arm-zephyr-eabi/bin/../lib/gcc/../../picolibc/arm-zephyr-eabi/lib/thumb/v7-m/nofp/libc.a(libm_common_math_errf_invalidf.c.o)
 .debug_frame   0x0000000000003550       0x28 /home/romain/zephyr-sdk-0.16.1/arm-zephyr-eabi/bin/../lib/gcc/../../picolibc/arm-zephyr-eabi/lib/thumb/v7-m/nofp/libc.a(memcpy.c.o)
 .debug_frame   0x0000000000003578       0x20 /home/romain/zephyr-sdk-0.16.1/arm-zephyr-eabi/bin/../lib/gcc/../../picolibc/arm-zephyr-eabi/lib/thumb/v7-m/nofp/libc.a(memset.c.o)
 .debug_frame   0x0000000000003598       0x20 /home/romain/zephyr-sdk-0.16.1/arm-zephyr-eabi/bin/../lib/gcc/../../picolibc/arm-zephyr-eabi/lib/thumb/v7-m/nofp/libc.a(libc_tinystdio_filestrput.c.o)
 .debug_frame   0x00000000000035b8       0x30 /home/romain/zephyr-sdk-0.16.1/arm-zephyr-eabi/bin/../lib/gcc/../../picolibc/arm-zephyr-eabi/lib/thumb/v7-m/nofp/libc.a(libm_math_sf_atan.c.o)

.debug_str      0x0000000000000000     0x9ca0
 *(SORT_BY_ALIGNMENT(.debug_str))
 .debug_str     0x0000000000000000      0x33f zephyr/CMakeFiles/offsets.dir/./arch/arm/core/offsets/offsets.c.obj
                                        0x378 (size before relaxing)
 .debug_str     0x000000000000033f      0x9c8 app/libapp.a(main.c.obj)
                                        0xbc4 (size before relaxing)
 .debug_str     0x0000000000000d07      0x26c app/libapp.a(moteur.c.obj)
                                        0xaac (size before relaxing)
 .debug_str     0x0000000000000f73      0x2cb app/libapp.a(codeur.c.obj)
                                        0x921 (size before relaxing)
 .debug_str     0x000000000000123e       0xe7 app/libapp.a(boussole.c.obj)
                                        0xb9c (size before relaxing)
 .debug_str     0x0000000000001325       0x7a app/libapp.a(pid.c.obj)
                                        0x2c8 (size before relaxing)
 .debug_str     0x000000000000139f      0x3be zephyr/libzephyr.a(heap.c.obj)
                                        0x6fd (size before relaxing)
 .debug_str     0x000000000000175d      0x6bd zephyr/libzephyr.a(cbprintf_packaged.c.obj)
                                        0xb2a (size before relaxing)
 .debug_str     0x0000000000001e1a       0xcf zephyr/libzephyr.a(printk.c.obj)
                                        0x5a7 (size before relaxing)
 .debug_str     0x0000000000001ee9       0x9d zephyr/libzephyr.a(thread_entry.c.obj)
                                        0x75b (size before relaxing)
 .debug_str     0x0000000000001f86      0x3fc zephyr/libzephyr.a(mpsc_pbuf.c.obj)
                                        0x7b1 (size before relaxing)
 .debug_str     0x0000000000002382       0x5b zephyr/libzephyr.a(configs.c.obj)
                                        0x1ea (size before relaxing)
 .debug_str     0x00000000000023dd       0xaa zephyr/libzephyr.a(soc_config.c.obj)
                                        0x3e3 (size before relaxing)
 .debug_str     0x0000000000002487       0x8e zephyr/libzephyr.a(soc.c.obj)
                                        0x361 (size before relaxing)
 .debug_str     0x0000000000002515      0xaca zephyr/libzephyr.a(log_core.c.obj)
                                       0x1c24 (size before relaxing)
 .debug_str     0x0000000000002fdf      0x56d zephyr/libzephyr.a(log_mgmt.c.obj)
                                        0xf98 (size before relaxing)
 .debug_str     0x000000000000354c      0x12b zephyr/libzephyr.a(log_msg.c.obj)
                                        0xc39 (size before relaxing)
 .debug_str     0x0000000000003677      0x295 zephyr/libzephyr.a(log_output.c.obj)
                                        0xc05 (size before relaxing)
 .debug_str     0x000000000000390c      0x216 zephyr/libzephyr.a(log_backend_uart.c.obj)
                                        0xdf5 (size before relaxing)
 .debug_str     0x0000000000003b22       0xfa zephyr/arch/arch/arm/core/libarch__arm__core.a(fatal.c.obj)
                                        0xa2b (size before relaxing)
 .debug_str     0x0000000000003c1c       0x8c zephyr/arch/arch/arm/core/libarch__arm__core.a(nmi.c.obj)
                                        0x4ea (size before relaxing)
 .debug_str     0x0000000000003ca8       0x4b zephyr/arch/arch/arm/core/libarch__arm__core.a(nmi_on_reset.S.obj)
                                         0x77 (size before relaxing)
 .debug_str     0x0000000000003cf3       0xa5 zephyr/arch/arch/arm/core/libarch__arm__core.a(tls.c.obj)
                                        0x751 (size before relaxing)
 .debug_str     0x0000000000003d98       0xda zephyr/arch/arch/arm/core/cortex_m/libarch__arm__core__cortex_m.a(exc_exit.c.obj)
                                        0x56d (size before relaxing)
 .debug_str     0x0000000000003e72      0x680 zephyr/arch/arch/arm/core/cortex_m/libarch__arm__core__cortex_m.a(fault.c.obj)
                                       0x1160 (size before relaxing)
 .debug_str     0x00000000000044f2       0x43 zephyr/arch/arch/arm/core/cortex_m/libarch__arm__core__cortex_m.a(fault_s.S.obj)
                                         0x7b (size before relaxing)
 .debug_str     0x0000000000004535       0x41 zephyr/arch/arch/arm/core/cortex_m/libarch__arm__core__cortex_m.a(reset.S.obj)
                                         0x79 (size before relaxing)
 .debug_str     0x0000000000004576       0x66 zephyr/arch/arch/arm/core/cortex_m/libarch__arm__core__cortex_m.a(thread_abort.c.obj)
                                        0x5b7 (size before relaxing)
 .debug_str     0x00000000000045dc       0x4a zephyr/arch/arch/arm/core/cortex_m/libarch__arm__core__cortex_m.a(swap.c.obj)
                                        0x590 (size before relaxing)
 .debug_str     0x0000000000004626       0x47 zephyr/arch/arch/arm/core/cortex_m/libarch__arm__core__cortex_m.a(swap_helper.S.obj)
                                         0x7f (size before relaxing)
 .debug_str     0x000000000000466d      0x420 zephyr/arch/arch/arm/core/cortex_m/libarch__arm__core__cortex_m.a(irq_manage.c.obj)
                                        0x7b4 (size before relaxing)
 .debug_str     0x0000000000004a8d       0xa4 zephyr/arch/arch/arm/core/cortex_m/libarch__arm__core__cortex_m.a(prep_c.c.obj)
                                        0x3dc (size before relaxing)
 .debug_str     0x0000000000004b31       0xe1 zephyr/arch/arch/arm/core/cortex_m/libarch__arm__core__cortex_m.a(thread.c.obj)
                                        0x698 (size before relaxing)
 .debug_str     0x0000000000004c12       0x89 zephyr/arch/arch/arm/core/cortex_m/libarch__arm__core__cortex_m.a(cpu_idle.c.obj)
                                        0x376 (size before relaxing)
 .debug_str     0x0000000000004c9b       0x44 zephyr/arch/arch/arm/core/cortex_m/libarch__arm__core__cortex_m.a(irq_init.c.obj)
                                        0x673 (size before relaxing)
 .debug_str     0x0000000000004cdf       0x7e zephyr/arch/arch/arm/core/cortex_m/libarch__arm__core__cortex_m.a(isr_wrapper.c.obj)
                                        0x2f5 (size before relaxing)
 .debug_str     0x0000000000004d5d       0x4b zephyr/arch/arch/arm/core/cortex_m/libarch__arm__core__cortex_m.a(__aeabi_read_tp.S.obj)
                                         0x83 (size before relaxing)
 .debug_str     0x0000000000004da8      0x246 zephyr/lib/libc/picolibc/liblib__libc__picolibc.a(libc-hooks.c.obj)
                                        0xa41 (size before relaxing)
 .debug_str     0x0000000000004fee      0x2b1 zephyr/lib/libc/common/liblib__libc__common.a(malloc.c.obj)
                                        0x7b8 (size before relaxing)
 .debug_str     0x000000000000529f      0x458 zephyr/drivers/interrupt_controller/libdrivers__interrupt_controller.a(intc_exti_stm32.c.obj)
                                        0xcaf (size before relaxing)
 .debug_str     0x00000000000056f7      0x643 zephyr/drivers/clock_control/libdrivers__clock_control.a(clock_stm32_ll_common.c.obj)
                                        0xb99 (size before relaxing)
 .debug_str     0x0000000000005d3a       0xaa zephyr/drivers/clock_control/libdrivers__clock_control.a(clock_stm32f1.c.obj)
                                        0x35f (size before relaxing)
 .debug_str     0x0000000000005de4      0x10b zephyr/drivers/console/libdrivers__console.a(uart_console.c.obj)
                                        0x5c0 (size before relaxing)
 .debug_str     0x0000000000005eef      0x6a7 zephyr/drivers/gpio/libdrivers__gpio.a(gpio_stm32.c.obj)
                                       0x126f (size before relaxing)
 .debug_str     0x0000000000006596       0x7f zephyr/drivers/i2c/libdrivers__i2c.a(i2c_common.c.obj)
                                        0x94a (size before relaxing)
 .debug_str     0x0000000000006615      0x6b6 zephyr/drivers/i2c/libdrivers__i2c.a(i2c_ll_stm32_v1.c.obj)
                                       0x10bd (size before relaxing)
 .debug_str     0x0000000000006ccb      0x400 zephyr/drivers/i2c/libdrivers__i2c.a(i2c_ll_stm32.c.obj)
                                       0x157f (size before relaxing)
 .debug_str     0x00000000000070cb       0x3b zephyr/drivers/pinctrl/libdrivers__pinctrl.a(common.c.obj)
                                        0x31c (size before relaxing)
 .debug_str     0x0000000000007106       0xcc zephyr/drivers/pinctrl/libdrivers__pinctrl.a(pinctrl_stm32.c.obj)
                                        0x4fb (size before relaxing)
 .debug_str     0x00000000000071d2      0x183 zephyr/drivers/reset/libdrivers__reset.a(reset_stm32.c.obj)
                                        0x52c (size before relaxing)
 .debug_str     0x0000000000007355      0xb4c zephyr/drivers/serial/libdrivers__serial.a(uart_stm32.c.obj)
                                       0x19c3 (size before relaxing)
 .debug_str     0x0000000000007ea1      0x177 zephyr/drivers/timer/libdrivers__timer.a(cortex_m_systick.c.obj)
                                        0x9d7 (size before relaxing)
 .debug_str     0x0000000000008018       0x9f modules/stm32/stm32cube/lib..__modules__hal__stm32__stm32cube.a(system_stm32f1xx.c.obj)
                                        0x335 (size before relaxing)
 .debug_str     0x00000000000080b7      0x3a7 modules/stm32/stm32cube/lib..__modules__hal__stm32__stm32cube.a(stm32f1xx_hal_rcc.c.obj)
                                        0x6fc (size before relaxing)
 .debug_str     0x000000000000845e      0x26b modules/stm32/stm32cube/lib..__modules__hal__stm32__stm32cube.a(stm32f1xx_ll_utils.c.obj)
                                        0x716 (size before relaxing)
 .debug_str     0x00000000000086c9       0xb2 zephyr/kernel/libkernel.a(device.c.obj)
                                        0x369 (size before relaxing)
 .debug_str     0x000000000000877b       0xba zephyr/kernel/libkernel.a(fatal.c.obj)
                                        0xd4c (size before relaxing)
 .debug_str     0x0000000000008835      0x4cf zephyr/kernel/libkernel.a(init.c.obj)
                                       0x1284 (size before relaxing)
 .debug_str     0x0000000000008d04       0x37 zephyr/kernel/libkernel.a(init_static.c.obj)
                                        0x1d4 (size before relaxing)
 .debug_str     0x0000000000008d3b       0x54 zephyr/kernel/libkernel.a(idle.c.obj)
                                        0x393 (size before relaxing)
 .debug_str     0x0000000000008d8f      0x1be zephyr/kernel/libkernel.a(mutex.c.obj)
                                        0xbff (size before relaxing)
 .debug_str     0x0000000000008f4d       0x42 zephyr/kernel/libkernel.a(sem.c.obj)
                                        0x89e (size before relaxing)
 .debug_str     0x0000000000008f8f      0x21d zephyr/kernel/libkernel.a(thread.c.obj)
                                        0xd99 (size before relaxing)
 .debug_str     0x00000000000091ac      0x727 zephyr/kernel/libkernel.a(sched.c.obj)
                                       0x1480 (size before relaxing)
 .debug_str     0x00000000000098d3       0xc0 zephyr/kernel/libkernel.a(timeslicing.c.obj)
                                        0x9d0 (size before relaxing)
 .debug_str     0x0000000000009993       0xa8 zephyr/kernel/libkernel.a(xip.c.obj)
                                        0x2f4 (size before relaxing)
 .debug_str     0x0000000000009a3b      0x134 zephyr/kernel/libkernel.a(timeout.c.obj)
                                        0x8b8 (size before relaxing)
 .debug_str     0x0000000000009b6f       0x99 zephyr/kernel/libkernel.a(timer.c.obj)
                                        0xa12 (size before relaxing)
 .debug_str     0x0000000000009c08       0x32 zephyr/kernel/libkernel.a(banner.c.obj)
                                        0x26f (size before relaxing)
 .debug_str     0x0000000000009c3a       0x66 zephyr/arch/common/libisr_tables.a(isr_tables.c.obj)
                                        0x38e (size before relaxing)

.debug_loc      0x0000000000000000    0x20cbb
 *(SORT_BY_ALIGNMENT(.debug_loc))
 .debug_loc     0x0000000000000000      0x2c0 app/libapp.a(main.c.obj)
 .debug_loc     0x00000000000002c0      0x230 app/libapp.a(moteur.c.obj)
 .debug_loc     0x00000000000004f0      0x4ee app/libapp.a(codeur.c.obj)
 .debug_loc     0x00000000000009de      0x43c app/libapp.a(boussole.c.obj)
 .debug_loc     0x0000000000000e1a      0x26b app/libapp.a(pid.c.obj)
 .debug_loc     0x0000000000001085     0x33c6 zephyr/libzephyr.a(heap.c.obj)
 .debug_loc     0x000000000000444b     0x2670 zephyr/libzephyr.a(cbprintf_packaged.c.obj)
 .debug_loc     0x0000000000006abb      0x11c zephyr/libzephyr.a(printk.c.obj)
 .debug_loc     0x0000000000006bd7       0x9d zephyr/libzephyr.a(thread_entry.c.obj)
 .debug_loc     0x0000000000006c74     0x15d7 zephyr/libzephyr.a(mpsc_pbuf.c.obj)
 .debug_loc     0x000000000000824b     0x1239 zephyr/libzephyr.a(log_core.c.obj)
 .debug_loc     0x0000000000009484      0xc47 zephyr/libzephyr.a(log_mgmt.c.obj)
 .debug_loc     0x000000000000a0cb     0x1206 zephyr/libzephyr.a(log_msg.c.obj)
 .debug_loc     0x000000000000b2d1     0x16f4 zephyr/libzephyr.a(log_output.c.obj)
 .debug_loc     0x000000000000c9c5      0x3c3 zephyr/libzephyr.a(log_backend_uart.c.obj)
 .debug_loc     0x000000000000cd88      0xa18 zephyr/arch/arch/arm/core/libarch__arm__core.a(fatal.c.obj)
 .debug_loc     0x000000000000d7a0       0x85 zephyr/arch/arch/arm/core/libarch__arm__core.a(tls.c.obj)
 .debug_loc     0x000000000000d825     0x1b44 zephyr/arch/arch/arm/core/cortex_m/libarch__arm__core__cortex_m.a(fault.c.obj)
 .debug_loc     0x000000000000f369       0x3a zephyr/arch/arch/arm/core/cortex_m/libarch__arm__core__cortex_m.a(thread_abort.c.obj)
 .debug_loc     0x000000000000f3a3       0x51 zephyr/arch/arch/arm/core/cortex_m/libarch__arm__core__cortex_m.a(swap.c.obj)
 .debug_loc     0x000000000000f3f4      0x1a1 zephyr/arch/arch/arm/core/cortex_m/libarch__arm__core__cortex_m.a(irq_manage.c.obj)
 .debug_loc     0x000000000000f595      0x171 zephyr/arch/arch/arm/core/cortex_m/libarch__arm__core__cortex_m.a(thread.c.obj)
 .debug_loc     0x000000000000f706       0x56 zephyr/arch/arch/arm/core/cortex_m/libarch__arm__core__cortex_m.a(cpu_idle.c.obj)
 .debug_loc     0x000000000000f75c       0x6a zephyr/arch/arch/arm/core/cortex_m/libarch__arm__core__cortex_m.a(irq_init.c.obj)
 .debug_loc     0x000000000000f7c6       0x3f zephyr/arch/arch/arm/core/cortex_m/libarch__arm__core__cortex_m.a(isr_wrapper.c.obj)
 .debug_loc     0x000000000000f805      0x405 zephyr/lib/libc/picolibc/liblib__libc__picolibc.a(libc-hooks.c.obj)
 .debug_loc     0x000000000000fc0a      0x45a zephyr/lib/libc/common/liblib__libc__common.a(malloc.c.obj)
 .debug_loc     0x0000000000010064      0x3fa zephyr/drivers/interrupt_controller/libdrivers__interrupt_controller.a(intc_exti_stm32.c.obj)
 .debug_loc     0x000000000001045e      0x76d zephyr/drivers/clock_control/libdrivers__clock_control.a(clock_stm32_ll_common.c.obj)
 .debug_loc     0x0000000000010bcb       0x46 zephyr/drivers/clock_control/libdrivers__clock_control.a(clock_stm32f1.c.obj)
 .debug_loc     0x0000000000010c11       0x85 zephyr/drivers/console/libdrivers__console.a(uart_console.c.obj)
 .debug_loc     0x0000000000010c96     0x18e7 zephyr/drivers/gpio/libdrivers__gpio.a(gpio_stm32.c.obj)
 .debug_loc     0x000000000001257d     0x1b07 zephyr/drivers/i2c/libdrivers__i2c.a(i2c_ll_stm32_v1.c.obj)
 .debug_loc     0x0000000000014084     0x1032 zephyr/drivers/i2c/libdrivers__i2c.a(i2c_ll_stm32.c.obj)
 .debug_loc     0x00000000000150b6       0x42 zephyr/drivers/pinctrl/libdrivers__pinctrl.a(common.c.obj)
 .debug_loc     0x00000000000150f8      0x3e3 zephyr/drivers/pinctrl/libdrivers__pinctrl.a(pinctrl_stm32.c.obj)
 .debug_loc     0x00000000000154db      0x37b zephyr/drivers/reset/libdrivers__reset.a(reset_stm32.c.obj)
 .debug_loc     0x0000000000015856     0x19ae zephyr/drivers/serial/libdrivers__serial.a(uart_stm32.c.obj)
 .debug_loc     0x0000000000017204      0x679 zephyr/drivers/timer/libdrivers__timer.a(cortex_m_systick.c.obj)
 .debug_loc     0x000000000001787d       0xfa modules/stm32/stm32cube/lib..__modules__hal__stm32__stm32cube.a(system_stm32f1xx.c.obj)
 .debug_loc     0x0000000000017977      0x5f6 modules/stm32/stm32cube/lib..__modules__hal__stm32__stm32cube.a(stm32f1xx_hal_rcc.c.obj)
 .debug_loc     0x0000000000017f6d      0x6f2 modules/stm32/stm32cube/lib..__modules__hal__stm32__stm32cube.a(stm32f1xx_ll_utils.c.obj)
 .debug_loc     0x000000000001865f       0xd2 zephyr/kernel/libkernel.a(device.c.obj)
 .debug_loc     0x0000000000018731      0x8f2 zephyr/kernel/libkernel.a(fatal.c.obj)
 .debug_loc     0x0000000000019023      0x7d7 zephyr/kernel/libkernel.a(init.c.obj)
 .debug_loc     0x00000000000197fa       0x85 zephyr/kernel/libkernel.a(idle.c.obj)
 .debug_loc     0x000000000001987f      0x766 zephyr/kernel/libkernel.a(mutex.c.obj)
 .debug_loc     0x0000000000019fe5      0x523 zephyr/kernel/libkernel.a(sem.c.obj)
 .debug_loc     0x000000000001a508      0xa78 zephyr/kernel/libkernel.a(thread.c.obj)
 .debug_loc     0x000000000001af80     0x409a zephyr/kernel/libkernel.a(sched.c.obj)
 .debug_loc     0x000000000001f01a      0x3e2 zephyr/kernel/libkernel.a(timeslicing.c.obj)
 .debug_loc     0x000000000001f3fc      0xf79 zephyr/kernel/libkernel.a(timeout.c.obj)
 .debug_loc     0x0000000000020375      0x946 zephyr/kernel/libkernel.a(timer.c.obj)

.debug_macinfo
 *(SORT_BY_ALIGNMENT(.debug_macinfo))

.debug_weaknames
 *(SORT_BY_ALIGNMENT(.debug_weaknames))

.debug_funcnames
 *(SORT_BY_ALIGNMENT(.debug_funcnames))

.debug_typenames
 *(SORT_BY_ALIGNMENT(.debug_typenames))

.debug_varnames
 *(SORT_BY_ALIGNMENT(.debug_varnames))

.debug_pubtypes
 *(SORT_BY_ALIGNMENT(.debug_pubtypes))

.debug_ranges   0x0000000000000000     0x58d8
 *(SORT_BY_ALIGNMENT(.debug_ranges))
 .debug_ranges  0x0000000000000000       0x20 zephyr/arch/arch/arm/core/cortex_m/libarch__arm__core__cortex_m.a(swap_helper.S.obj)
 .debug_ranges  0x0000000000000020       0x10 zephyr/CMakeFiles/offsets.dir/./arch/arm/core/offsets/offsets.c.obj
 .debug_ranges  0x0000000000000030       0x88 app/libapp.a(main.c.obj)
 .debug_ranges  0x00000000000000b8       0x50 app/libapp.a(moteur.c.obj)
 .debug_ranges  0x0000000000000108       0xb8 app/libapp.a(codeur.c.obj)
 .debug_ranges  0x00000000000001c0       0x60 app/libapp.a(boussole.c.obj)
 .debug_ranges  0x0000000000000220       0x18 app/libapp.a(pid.c.obj)
 .debug_ranges  0x0000000000000238      0x4f8 zephyr/libzephyr.a(heap.c.obj)
 .debug_ranges  0x0000000000000730      0x360 zephyr/libzephyr.a(cbprintf_packaged.c.obj)
 .debug_ranges  0x0000000000000a90       0x38 zephyr/libzephyr.a(printk.c.obj)
 .debug_ranges  0x0000000000000ac8       0x28 zephyr/libzephyr.a(thread_entry.c.obj)
 .debug_ranges  0x0000000000000af0      0x4d0 zephyr/libzephyr.a(mpsc_pbuf.c.obj)
 .debug_ranges  0x0000000000000fc0       0x10 zephyr/libzephyr.a(configs.c.obj)
 .debug_ranges  0x0000000000000fd0       0x28 zephyr/libzephyr.a(soc_config.c.obj)
 .debug_ranges  0x0000000000000ff8       0x28 zephyr/libzephyr.a(soc.c.obj)
 .debug_ranges  0x0000000000001020      0x528 zephyr/libzephyr.a(log_core.c.obj)
 .debug_ranges  0x0000000000001548      0x308 zephyr/libzephyr.a(log_mgmt.c.obj)
 .debug_ranges  0x0000000000001850      0x270 zephyr/libzephyr.a(log_msg.c.obj)
 .debug_ranges  0x0000000000001ac0      0x240 zephyr/libzephyr.a(log_output.c.obj)
 .debug_ranges  0x0000000000001d00       0xa0 zephyr/libzephyr.a(log_backend_uart.c.obj)
 .debug_ranges  0x0000000000001da0      0x100 zephyr/arch/arch/arm/core/libarch__arm__core.a(fatal.c.obj)
 .debug_ranges  0x0000000000001ea0       0x18 zephyr/arch/arch/arm/core/libarch__arm__core.a(nmi.c.obj)
 .debug_ranges  0x0000000000001eb8       0x50 zephyr/arch/arch/arm/core/libarch__arm__core.a(tls.c.obj)
 .debug_ranges  0x0000000000001f08       0x10 zephyr/arch/arch/arm/core/cortex_m/libarch__arm__core__cortex_m.a(exc_exit.c.obj)
 .debug_ranges  0x0000000000001f18      0x418 zephyr/arch/arch/arm/core/cortex_m/libarch__arm__core__cortex_m.a(fault.c.obj)
 .debug_ranges  0x0000000000002330       0x10 zephyr/arch/arch/arm/core/cortex_m/libarch__arm__core__cortex_m.a(thread_abort.c.obj)
 .debug_ranges  0x0000000000002340       0x10 zephyr/arch/arch/arm/core/cortex_m/libarch__arm__core__cortex_m.a(swap.c.obj)
 .debug_ranges  0x0000000000002350       0x48 zephyr/arch/arch/arm/core/cortex_m/libarch__arm__core__cortex_m.a(irq_manage.c.obj)
 .debug_ranges  0x0000000000002398       0x28 zephyr/arch/arch/arm/core/cortex_m/libarch__arm__core__cortex_m.a(prep_c.c.obj)
 .debug_ranges  0x00000000000023c0       0x28 zephyr/arch/arch/arm/core/cortex_m/libarch__arm__core__cortex_m.a(thread.c.obj)
 .debug_ranges  0x00000000000023e8       0x20 zephyr/arch/arch/arm/core/cortex_m/libarch__arm__core__cortex_m.a(cpu_idle.c.obj)
 .debug_ranges  0x0000000000002408       0x30 zephyr/arch/arch/arm/core/cortex_m/libarch__arm__core__cortex_m.a(irq_init.c.obj)
 .debug_ranges  0x0000000000002438       0x28 zephyr/arch/arch/arm/core/cortex_m/libarch__arm__core__cortex_m.a(isr_wrapper.c.obj)
 .debug_ranges  0x0000000000002460       0xe8 zephyr/lib/libc/picolibc/liblib__libc__picolibc.a(libc-hooks.c.obj)
 .debug_ranges  0x0000000000002548       0x80 zephyr/lib/libc/common/liblib__libc__common.a(malloc.c.obj)
 .debug_ranges  0x00000000000025c8      0x130 zephyr/drivers/interrupt_controller/libdrivers__interrupt_controller.a(intc_exti_stm32.c.obj)
 .debug_ranges  0x00000000000026f8      0x150 zephyr/drivers/clock_control/libdrivers__clock_control.a(clock_stm32_ll_common.c.obj)
 .debug_ranges  0x0000000000002848       0x18 zephyr/drivers/clock_control/libdrivers__clock_control.a(clock_stm32f1.c.obj)
 .debug_ranges  0x0000000000002860       0x38 zephyr/drivers/console/libdrivers__console.a(uart_console.c.obj)
 .debug_ranges  0x0000000000002898      0x3d8 zephyr/drivers/gpio/libdrivers__gpio.a(gpio_stm32.c.obj)
 .debug_ranges  0x0000000000002c70       0x10 zephyr/drivers/i2c/libdrivers__i2c.a(i2c_common.c.obj)
 .debug_ranges  0x0000000000002c80      0x2f8 zephyr/drivers/i2c/libdrivers__i2c.a(i2c_ll_stm32_v1.c.obj)
 .debug_ranges  0x0000000000002f78      0x2b0 zephyr/drivers/i2c/libdrivers__i2c.a(i2c_ll_stm32.c.obj)
 .debug_ranges  0x0000000000003228       0x10 zephyr/drivers/pinctrl/libdrivers__pinctrl.a(common.c.obj)
 .debug_ranges  0x0000000000003238       0xf0 zephyr/drivers/pinctrl/libdrivers__pinctrl.a(pinctrl_stm32.c.obj)
 .debug_ranges  0x0000000000003328       0x78 zephyr/drivers/reset/libdrivers__reset.a(reset_stm32.c.obj)
 .debug_ranges  0x00000000000033a0      0x430 zephyr/drivers/serial/libdrivers__serial.a(uart_stm32.c.obj)
 .debug_ranges  0x00000000000037d0       0xf8 zephyr/drivers/timer/libdrivers__timer.a(cortex_m_systick.c.obj)
 .debug_ranges  0x00000000000038c8       0x18 modules/stm32/stm32cube/lib..__modules__hal__stm32__stm32cube.a(system_stm32f1xx.c.obj)
 .debug_ranges  0x00000000000038e0       0xc0 modules/stm32/stm32cube/lib..__modules__hal__stm32__stm32cube.a(stm32f1xx_hal_rcc.c.obj)
 .debug_ranges  0x00000000000039a0      0x1d0 modules/stm32/stm32cube/lib..__modules__hal__stm32__stm32cube.a(stm32f1xx_ll_utils.c.obj)
 .debug_ranges  0x0000000000003b70       0xa0 zephyr/kernel/libkernel.a(device.c.obj)
 .debug_ranges  0x0000000000003c10      0x2e8 zephyr/kernel/libkernel.a(fatal.c.obj)
 .debug_ranges  0x0000000000003ef8      0x280 zephyr/kernel/libkernel.a(init.c.obj)
 .debug_ranges  0x0000000000004178       0x10 zephyr/kernel/libkernel.a(init_static.c.obj)
 .debug_ranges  0x0000000000004188       0x48 zephyr/kernel/libkernel.a(idle.c.obj)
 .debug_ranges  0x00000000000041d0       0xd0 zephyr/kernel/libkernel.a(mutex.c.obj)
 .debug_ranges  0x00000000000042a0       0xd0 zephyr/kernel/libkernel.a(sem.c.obj)
 .debug_ranges  0x0000000000004370      0x1b8 zephyr/kernel/libkernel.a(thread.c.obj)
 .debug_ranges  0x0000000000004528      0xd20 zephyr/kernel/libkernel.a(sched.c.obj)
 .debug_ranges  0x0000000000005248       0xa8 zephyr/kernel/libkernel.a(timeslicing.c.obj)
 .debug_ranges  0x00000000000052f0       0x10 zephyr/kernel/libkernel.a(xip.c.obj)
 .debug_ranges  0x0000000000005300      0x470 zephyr/kernel/libkernel.a(timeout.c.obj)
 .debug_ranges  0x0000000000005770      0x158 zephyr/kernel/libkernel.a(timer.c.obj)
 .debug_ranges  0x00000000000058c8       0x10 zephyr/kernel/libkernel.a(banner.c.obj)

.debug_addr
 *(SORT_BY_ALIGNMENT(.debug_addr))

.debug_line_str
 *(SORT_BY_ALIGNMENT(.debug_line_str))

.debug_loclists
 *(SORT_BY_ALIGNMENT(.debug_loclists))

.debug_macro
 *(SORT_BY_ALIGNMENT(.debug_macro))

.debug_names
 *(SORT_BY_ALIGNMENT(.debug_names))

.debug_rnglists
 *(SORT_BY_ALIGNMENT(.debug_rnglists))

.debug_str_offsets
 *(SORT_BY_ALIGNMENT(.debug_str_offsets))

.debug_sup
 *(SORT_BY_ALIGNMENT(.debug_sup))

/DISCARD/
 *(SORT_BY_ALIGNMENT(.note.GNU-stack))

.ARM.attributes
                0x0000000000000000       0x31
 *(SORT_BY_ALIGNMENT(.ARM.attributes))
 .ARM.attributes
                0x0000000000000000       0x2f zephyr/CMakeFiles/zephyr_pre0.dir/misc/empty_file.c.obj
 .ARM.attributes
                0x000000000000002f       0x2f zephyr/CMakeFiles/offsets.dir/./arch/arm/core/offsets/offsets.c.obj
 .ARM.attributes
                0x000000000000005e       0x2f app/libapp.a(main.c.obj)
 .ARM.attributes
                0x000000000000008d       0x2f app/libapp.a(moteur.c.obj)
 .ARM.attributes
                0x00000000000000bc       0x2f app/libapp.a(codeur.c.obj)
 .ARM.attributes
                0x00000000000000eb       0x2f app/libapp.a(boussole.c.obj)
 .ARM.attributes
                0x000000000000011a       0x2f app/libapp.a(pid.c.obj)
 .ARM.attributes
                0x0000000000000149       0x2f zephyr/libzephyr.a(heap.c.obj)
 .ARM.attributes
                0x0000000000000178       0x2f zephyr/libzephyr.a(cbprintf_packaged.c.obj)
 .ARM.attributes
                0x00000000000001a7       0x2f zephyr/libzephyr.a(printk.c.obj)
 .ARM.attributes
                0x00000000000001d6       0x2f zephyr/libzephyr.a(sem.c.obj)
 .ARM.attributes
                0x0000000000000205       0x2f zephyr/libzephyr.a(thread_entry.c.obj)
 .ARM.attributes
                0x0000000000000234       0x2f zephyr/libzephyr.a(cbprintf_complete.c.obj)
 .ARM.attributes
                0x0000000000000263       0x2f zephyr/libzephyr.a(assert.c.obj)
 .ARM.attributes
                0x0000000000000292       0x2f zephyr/libzephyr.a(mpsc_pbuf.c.obj)
 .ARM.attributes
                0x00000000000002c1       0x2f zephyr/libzephyr.a(reboot.c.obj)
 .ARM.attributes
                0x00000000000002f0       0x2f zephyr/libzephyr.a(dec.c.obj)
 .ARM.attributes
                0x000000000000031f       0x2f zephyr/libzephyr.a(hex.c.obj)
 .ARM.attributes
                0x000000000000034e       0x2f zephyr/libzephyr.a(rb.c.obj)
 .ARM.attributes
                0x000000000000037d       0x2f zephyr/libzephyr.a(timeutil.c.obj)
 .ARM.attributes
                0x00000000000003ac       0x2f zephyr/libzephyr.a(bitarray.c.obj)
 .ARM.attributes
                0x00000000000003db       0x2f zephyr/libzephyr.a(configs.c.obj)
 .ARM.attributes
                0x000000000000040a       0x2f zephyr/libzephyr.a(stm32cube_hal.c.obj)
 .ARM.attributes
                0x0000000000000439       0x2f zephyr/libzephyr.a(soc_config.c.obj)
 .ARM.attributes
                0x0000000000000468       0x2f zephyr/libzephyr.a(soc.c.obj)
 .ARM.attributes
                0x0000000000000497       0x2f zephyr/libzephyr.a(log_core.c.obj)
 .ARM.attributes
                0x00000000000004c6       0x2f zephyr/libzephyr.a(log_mgmt.c.obj)
 .ARM.attributes
                0x00000000000004f5       0x2f zephyr/libzephyr.a(log_cache.c.obj)
 .ARM.attributes
                0x0000000000000524       0x2f zephyr/libzephyr.a(log_msg.c.obj)
 .ARM.attributes
                0x0000000000000553       0x2f zephyr/libzephyr.a(log_output.c.obj)
 .ARM.attributes
                0x0000000000000582       0x2f zephyr/libzephyr.a(log_backend_uart.c.obj)
 .ARM.attributes
                0x00000000000005b1       0x2f zephyr/libzephyr.a(tracing_none.c.obj)
 .ARM.attributes
                0x00000000000005e0       0x2f zephyr/arch/common/libarch__common.a(sw_isr_common.c.obj)
 .ARM.attributes
                0x000000000000060f       0x2f zephyr/arch/arch/arm/core/libarch__arm__core.a(fatal.c.obj)
 .ARM.attributes
                0x000000000000063e       0x2f zephyr/arch/arch/arm/core/libarch__arm__core.a(nmi.c.obj)
 .ARM.attributes
                0x000000000000066d       0x1b zephyr/arch/arch/arm/core/libarch__arm__core.a(nmi_on_reset.S.obj)
 .ARM.attributes
                0x0000000000000688       0x2f zephyr/arch/arch/arm/core/libarch__arm__core.a(tls.c.obj)
 .ARM.attributes
                0x00000000000006b7       0x2f zephyr/arch/arch/arm/core/cortex_m/libarch__arm__core__cortex_m.a(exc_exit.c.obj)
 .ARM.attributes
                0x00000000000006e6       0x2f zephyr/arch/arch/arm/core/cortex_m/libarch__arm__core__cortex_m.a(fault.c.obj)
 .ARM.attributes
                0x0000000000000715       0x1b zephyr/arch/arch/arm/core/cortex_m/libarch__arm__core__cortex_m.a(fault_s.S.obj)
 .ARM.attributes
                0x0000000000000730       0x2f zephyr/arch/arch/arm/core/cortex_m/libarch__arm__core__cortex_m.a(fpu.c.obj)
 .ARM.attributes
                0x000000000000075f       0x1b zephyr/arch/arch/arm/core/cortex_m/libarch__arm__core__cortex_m.a(reset.S.obj)
 .ARM.attributes
                0x000000000000077a       0x2f zephyr/arch/arch/arm/core/cortex_m/libarch__arm__core__cortex_m.a(scb.c.obj)
 .ARM.attributes
                0x00000000000007a9       0x2f zephyr/arch/arch/arm/core/cortex_m/libarch__arm__core__cortex_m.a(thread_abort.c.obj)
 .ARM.attributes
                0x00000000000007d8       0x1d zephyr/arch/arch/arm/core/cortex_m/libarch__arm__core__cortex_m.a(vector_table.S.obj)
 .ARM.attributes
                0x00000000000007f5       0x2f zephyr/arch/arch/arm/core/cortex_m/libarch__arm__core__cortex_m.a(swap.c.obj)
 .ARM.attributes
                0x0000000000000824       0x1b zephyr/arch/arch/arm/core/cortex_m/libarch__arm__core__cortex_m.a(swap_helper.S.obj)
 .ARM.attributes
                0x000000000000083f       0x2f zephyr/arch/arch/arm/core/cortex_m/libarch__arm__core__cortex_m.a(irq_manage.c.obj)
 .ARM.attributes
                0x000000000000086e       0x2f zephyr/arch/arch/arm/core/cortex_m/libarch__arm__core__cortex_m.a(prep_c.c.obj)
 .ARM.attributes
                0x000000000000089d       0x2f zephyr/arch/arch/arm/core/cortex_m/libarch__arm__core__cortex_m.a(thread.c.obj)
 .ARM.attributes
                0x00000000000008cc       0x2f zephyr/arch/arch/arm/core/cortex_m/libarch__arm__core__cortex_m.a(cpu_idle.c.obj)
 .ARM.attributes
                0x00000000000008fb       0x2f zephyr/arch/arch/arm/core/cortex_m/libarch__arm__core__cortex_m.a(irq_init.c.obj)
 .ARM.attributes
                0x000000000000092a       0x2f zephyr/arch/arch/arm/core/cortex_m/libarch__arm__core__cortex_m.a(isr_wrapper.c.obj)
 .ARM.attributes
                0x0000000000000959       0x1b zephyr/arch/arch/arm/core/cortex_m/libarch__arm__core__cortex_m.a(__aeabi_read_tp.S.obj)
 .ARM.attributes
                0x0000000000000974       0x2f zephyr/lib/libc/picolibc/liblib__libc__picolibc.a(libc-hooks.c.obj)
 .ARM.attributes
                0x00000000000009a3       0x2f zephyr/lib/libc/common/liblib__libc__common.a(abort.c.obj)
 .ARM.attributes
                0x00000000000009d2       0x2f zephyr/lib/libc/common/liblib__libc__common.a(malloc.c.obj)
 .ARM.attributes
                0x0000000000000a01       0x2f zephyr/drivers/interrupt_controller/libdrivers__interrupt_controller.a(intc_exti_stm32.c.obj)
 .ARM.attributes
                0x0000000000000a30       0x2f zephyr/drivers/clock_control/libdrivers__clock_control.a(clock_stm32_ll_common.c.obj)
 .ARM.attributes
                0x0000000000000a5f       0x2f zephyr/drivers/clock_control/libdrivers__clock_control.a(clock_stm32f1.c.obj)
 .ARM.attributes
                0x0000000000000a8e       0x2f zephyr/drivers/console/libdrivers__console.a(uart_console.c.obj)
 .ARM.attributes
                0x0000000000000abd       0x2f zephyr/drivers/gpio/libdrivers__gpio.a(gpio_stm32.c.obj)
 .ARM.attributes
                0x0000000000000aec       0x2f zephyr/drivers/i2c/libdrivers__i2c.a(i2c_common.c.obj)
 .ARM.attributes
                0x0000000000000b1b       0x2f zephyr/drivers/i2c/libdrivers__i2c.a(i2c_ll_stm32_v1.c.obj)
 .ARM.attributes
                0x0000000000000b4a       0x2f zephyr/drivers/i2c/libdrivers__i2c.a(i2c_ll_stm32.c.obj)
 .ARM.attributes
                0x0000000000000b79       0x2f zephyr/drivers/pinctrl/libdrivers__pinctrl.a(common.c.obj)
 .ARM.attributes
                0x0000000000000ba8       0x2f zephyr/drivers/pinctrl/libdrivers__pinctrl.a(pinctrl_stm32.c.obj)
 .ARM.attributes
                0x0000000000000bd7       0x2f zephyr/drivers/reset/libdrivers__reset.a(reset_stm32.c.obj)
 .ARM.attributes
                0x0000000000000c06       0x2f zephyr/drivers/serial/libdrivers__serial.a(uart_stm32.c.obj)
 .ARM.attributes
                0x0000000000000c35       0x2f zephyr/drivers/timer/libdrivers__timer.a(sys_clock_init.c.obj)
 .ARM.attributes
                0x0000000000000c64       0x2f zephyr/drivers/timer/libdrivers__timer.a(cortex_m_systick.c.obj)
 .ARM.attributes
                0x0000000000000c93       0x2f modules/stm32/stm32cube/lib..__modules__hal__stm32__stm32cube.a(system_stm32f1xx.c.obj)
 .ARM.attributes
                0x0000000000000cc2       0x2f modules/stm32/stm32cube/lib..__modules__hal__stm32__stm32cube.a(stm32f1xx_hal.c.obj)
 .ARM.attributes
                0x0000000000000cf1       0x2f modules/stm32/stm32cube/lib..__modules__hal__stm32__stm32cube.a(stm32f1xx_hal_rcc.c.obj)
 .ARM.attributes
                0x0000000000000d20       0x2f modules/stm32/stm32cube/lib..__modules__hal__stm32__stm32cube.a(stm32f1xx_hal_rcc_ex.c.obj)
 .ARM.attributes
                0x0000000000000d4f       0x2f modules/stm32/stm32cube/lib..__modules__hal__stm32__stm32cube.a(stm32f1xx_ll_i2c.c.obj)
 .ARM.attributes
                0x0000000000000d7e       0x2f modules/stm32/stm32cube/lib..__modules__hal__stm32__stm32cube.a(stm32f1xx_ll_utils.c.obj)
 .ARM.attributes
                0x0000000000000dad       0x2f zephyr/kernel/libkernel.a(device.c.obj)
 .ARM.attributes
                0x0000000000000ddc       0x2f zephyr/kernel/libkernel.a(fatal.c.obj)
 .ARM.attributes
                0x0000000000000e0b       0x2f zephyr/kernel/libkernel.a(init.c.obj)
 .ARM.attributes
                0x0000000000000e3a       0x2f zephyr/kernel/libkernel.a(init_static.c.obj)
 .ARM.attributes
                0x0000000000000e69       0x2f zephyr/kernel/libkernel.a(idle.c.obj)
 .ARM.attributes
                0x0000000000000e98       0x2f zephyr/kernel/libkernel.a(mutex.c.obj)
 .ARM.attributes
                0x0000000000000ec7       0x2f zephyr/kernel/libkernel.a(sem.c.obj)
 .ARM.attributes
                0x0000000000000ef6       0x2f zephyr/kernel/libkernel.a(thread.c.obj)
 .ARM.attributes
                0x0000000000000f25       0x2f zephyr/kernel/libkernel.a(sched.c.obj)
 .ARM.attributes
                0x0000000000000f54       0x2f zephyr/kernel/libkernel.a(timeslicing.c.obj)
 .ARM.attributes
                0x0000000000000f83       0x2f zephyr/kernel/libkernel.a(xip.c.obj)
 .ARM.attributes
                0x0000000000000fb2       0x2f zephyr/kernel/libkernel.a(timeout.c.obj)
 .ARM.attributes
                0x0000000000000fe1       0x2f zephyr/kernel/libkernel.a(timer.c.obj)
 .ARM.attributes
                0x0000000000001010       0x2f zephyr/kernel/libkernel.a(banner.c.obj)
 .ARM.attributes
                0x000000000000103f       0x1d /home/romain/zephyr-sdk-0.16.1/arm-zephyr-eabi/bin/../lib/gcc/arm-zephyr-eabi/12.2.0/thumb/v7-m/nofp/libgcc.a(_arm_muldf3.o)
 .ARM.attributes
                0x000000000000105c       0x1d /home/romain/zephyr-sdk-0.16.1/arm-zephyr-eabi/bin/../lib/gcc/arm-zephyr-eabi/12.2.0/thumb/v7-m/nofp/libgcc.a(_arm_mulsf3.o)
 .ARM.attributes
                0x0000000000001079       0x1d /home/romain/zephyr-sdk-0.16.1/arm-zephyr-eabi/bin/../lib/gcc/arm-zephyr-eabi/12.2.0/thumb/v7-m/nofp/libgcc.a(_arm_addsubdf3.o)
 .ARM.attributes
                0x0000000000001096       0x1d /home/romain/zephyr-sdk-0.16.1/arm-zephyr-eabi/bin/../lib/gcc/arm-zephyr-eabi/12.2.0/thumb/v7-m/nofp/libgcc.a(_arm_muldivdf3.o)
 .ARM.attributes
                0x00000000000010b3       0x1d /home/romain/zephyr-sdk-0.16.1/arm-zephyr-eabi/bin/../lib/gcc/arm-zephyr-eabi/12.2.0/thumb/v7-m/nofp/libgcc.a(_arm_truncdfsf2.o)
 .ARM.attributes
                0x00000000000010d0       0x1d /home/romain/zephyr-sdk-0.16.1/arm-zephyr-eabi/bin/../lib/gcc/arm-zephyr-eabi/12.2.0/thumb/v7-m/nofp/libgcc.a(_arm_addsubsf3.o)
 .ARM.attributes
                0x00000000000010ed       0x1d /home/romain/zephyr-sdk-0.16.1/arm-zephyr-eabi/bin/../lib/gcc/arm-zephyr-eabi/12.2.0/thumb/v7-m/nofp/libgcc.a(_arm_muldivsf3.o)
 .ARM.attributes
                0x000000000000110a       0x1d /home/romain/zephyr-sdk-0.16.1/arm-zephyr-eabi/bin/../lib/gcc/arm-zephyr-eabi/12.2.0/thumb/v7-m/nofp/libgcc.a(_arm_cmpsf2.o)
 .ARM.attributes
                0x0000000000001127       0x1d /home/romain/zephyr-sdk-0.16.1/arm-zephyr-eabi/bin/../lib/gcc/arm-zephyr-eabi/12.2.0/thumb/v7-m/nofp/libgcc.a(_arm_fixsfsi.o)
 .ARM.attributes
                0x0000000000001144       0x1d /home/romain/zephyr-sdk-0.16.1/arm-zephyr-eabi/bin/../lib/gcc/arm-zephyr-eabi/12.2.0/thumb/v7-m/nofp/libgcc.a(_aeabi_ldivmod.o)
 .ARM.attributes
                0x0000000000001161       0x1d /home/romain/zephyr-sdk-0.16.1/arm-zephyr-eabi/bin/../lib/gcc/arm-zephyr-eabi/12.2.0/thumb/v7-m/nofp/libgcc.a(_aeabi_uldivmod.o)
 .ARM.attributes
                0x000000000000117e       0x2d /home/romain/zephyr-sdk-0.16.1/arm-zephyr-eabi/bin/../lib/gcc/arm-zephyr-eabi/12.2.0/thumb/v7-m/nofp/libgcc.a(_popcountsi2.o)
 .ARM.attributes
                0x00000000000011ab       0x2d /home/romain/zephyr-sdk-0.16.1/arm-zephyr-eabi/bin/../lib/gcc/arm-zephyr-eabi/12.2.0/thumb/v7-m/nofp/libgcc.a(_fixdfdi.o)
 .ARM.attributes
                0x00000000000011d8       0x2d /home/romain/zephyr-sdk-0.16.1/arm-zephyr-eabi/bin/../lib/gcc/arm-zephyr-eabi/12.2.0/thumb/v7-m/nofp/libgcc.a(_fixunsdfdi.o)
 .ARM.attributes
                0x0000000000001205       0x2d /home/romain/zephyr-sdk-0.16.1/arm-zephyr-eabi/bin/../lib/gcc/arm-zephyr-eabi/12.2.0/thumb/v7-m/nofp/libgcc.a(_udivmoddi4.o)
 .ARM.attributes
                0x0000000000001232       0x1d /home/romain/zephyr-sdk-0.16.1/arm-zephyr-eabi/bin/../lib/gcc/arm-zephyr-eabi/12.2.0/thumb/v7-m/nofp/libgcc.a(_dvmd_tls.o)
 .ARM.attributes
                0x000000000000124f       0x1d /home/romain/zephyr-sdk-0.16.1/arm-zephyr-eabi/bin/../lib/gcc/arm-zephyr-eabi/12.2.0/thumb/v7-m/nofp/libgcc.a(_arm_cmpdf2.o)
 .ARM.attributes
                0x000000000000126c       0x1d /home/romain/zephyr-sdk-0.16.1/arm-zephyr-eabi/bin/../lib/gcc/arm-zephyr-eabi/12.2.0/thumb/v7-m/nofp/libgcc.a(_arm_fixunsdfsi.o)
 .ARM.attributes
                0x0000000000001289       0x2f zephyr/arch/common/libisr_tables.a(isr_tables.c.obj)
 .ARM.attributes
                0x00000000000012b8       0x31 /home/romain/zephyr-sdk-0.16.1/arm-zephyr-eabi/bin/../lib/gcc/../../picolibc/arm-zephyr-eabi/lib/thumb/v7-m/nofp/libc.a(libc_ctype_ctype_.c.o)
 .ARM.attributes
                0x00000000000012e9       0x31 /home/romain/zephyr-sdk-0.16.1/arm-zephyr-eabi/bin/../lib/gcc/../../picolibc/arm-zephyr-eabi/lib/thumb/v7-m/nofp/libc.a(libc_errno_errno.c.o)
 .ARM.attributes
                0x000000000000131a       0x31 /home/romain/zephyr-sdk-0.16.1/arm-zephyr-eabi/bin/../lib/gcc/../../picolibc/arm-zephyr-eabi/lib/thumb/v7-m/nofp/libc.a(libc_string_strnlen.c.o)
 .ARM.attributes
                0x000000000000134b       0x31 /home/romain/zephyr-sdk-0.16.1/arm-zephyr-eabi/bin/../lib/gcc/../../picolibc/arm-zephyr-eabi/lib/thumb/v7-m/nofp/libc.a(libc_tinystdio_snprintf.c.o)
 .ARM.attributes
                0x000000000000137c       0x31 /home/romain/zephyr-sdk-0.16.1/arm-zephyr-eabi/bin/../lib/gcc/../../picolibc/arm-zephyr-eabi/lib/thumb/v7-m/nofp/libc.a(libc_tinystdio_vfprintf.c.o)
 .ARM.attributes
                0x00000000000013ad       0x31 /home/romain/zephyr-sdk-0.16.1/arm-zephyr-eabi/bin/../lib/gcc/../../picolibc/arm-zephyr-eabi/lib/thumb/v7-m/nofp/libc.a(libc_tinystdio_vfscanf.c.o)
 .ARM.attributes
                0x00000000000013de       0x31 /home/romain/zephyr-sdk-0.16.1/arm-zephyr-eabi/bin/../lib/gcc/../../picolibc/arm-zephyr-eabi/lib/thumb/v7-m/nofp/libc.a(libc_tinystdio_dtoa_ryu.c.o)
 .ARM.attributes
                0x000000000000140f       0x31 /home/romain/zephyr-sdk-0.16.1/arm-zephyr-eabi/bin/../lib/gcc/../../picolibc/arm-zephyr-eabi/lib/thumb/v7-m/nofp/libc.a(libc_tinystdio_ryu_table.c.o)
 .ARM.attributes
                0x0000000000001440       0x31 /home/romain/zephyr-sdk-0.16.1/arm-zephyr-eabi/bin/../lib/gcc/../../picolibc/arm-zephyr-eabi/lib/thumb/v7-m/nofp/libc.a(libc_tinystdio_atod_ryu.c.o)
 .ARM.attributes
                0x0000000000001471       0x31 /home/romain/zephyr-sdk-0.16.1/arm-zephyr-eabi/bin/../lib/gcc/../../picolibc/arm-zephyr-eabi/lib/thumb/v7-m/nofp/libc.a(libc_tinystdio_atof_ryu.c.o)
 .ARM.attributes
                0x00000000000014a2       0x31 /home/romain/zephyr-sdk-0.16.1/arm-zephyr-eabi/bin/../lib/gcc/../../picolibc/arm-zephyr-eabi/lib/thumb/v7-m/nofp/libc.a(libc_tinystdio_ryu_log2pow5.c.o)
 .ARM.attributes
                0x00000000000014d3       0x31 /home/romain/zephyr-sdk-0.16.1/arm-zephyr-eabi/bin/../lib/gcc/../../picolibc/arm-zephyr-eabi/lib/thumb/v7-m/nofp/libc.a(libc_tinystdio_ryu_log10.c.o)
 .ARM.attributes
                0x0000000000001504       0x31 /home/romain/zephyr-sdk-0.16.1/arm-zephyr-eabi/bin/../lib/gcc/../../picolibc/arm-zephyr-eabi/lib/thumb/v7-m/nofp/libc.a(libc_tinystdio_ryu_pow5bits.c.o)
 .ARM.attributes
                0x0000000000001535       0x31 /home/romain/zephyr-sdk-0.16.1/arm-zephyr-eabi/bin/../lib/gcc/../../picolibc/arm-zephyr-eabi/lib/thumb/v7-m/nofp/libc.a(libc_tinystdio_ryu_umul128.c.o)
 .ARM.attributes
                0x0000000000001566       0x31 /home/romain/zephyr-sdk-0.16.1/arm-zephyr-eabi/bin/../lib/gcc/../../picolibc/arm-zephyr-eabi/lib/thumb/v7-m/nofp/libc.a(libc_tinystdio_ryu_divpow2.c.o)
 .ARM.attributes
                0x0000000000001597       0x31 /home/romain/zephyr-sdk-0.16.1/arm-zephyr-eabi/bin/../lib/gcc/../../picolibc/arm-zephyr-eabi/lib/thumb/v7-m/nofp/libc.a(libm_math_sf_atan2.c.o)
 .ARM.attributes
                0x00000000000015c8       0x31 /home/romain/zephyr-sdk-0.16.1/arm-zephyr-eabi/bin/../lib/gcc/../../picolibc/arm-zephyr-eabi/lib/thumb/v7-m/nofp/libc.a(libm_math_sf_fmod.c.o)
 .ARM.attributes
                0x00000000000015f9       0x31 /home/romain/zephyr-sdk-0.16.1/arm-zephyr-eabi/bin/../lib/gcc/../../picolibc/arm-zephyr-eabi/lib/thumb/v7-m/nofp/libc.a(libm_common_sf_fpclassify.c.o)
 .ARM.attributes
                0x000000000000162a       0x31 /home/romain/zephyr-sdk-0.16.1/arm-zephyr-eabi/bin/../lib/gcc/../../picolibc/arm-zephyr-eabi/lib/thumb/v7-m/nofp/libc.a(libm_common_math_errf_invalidf.c.o)
 .ARM.attributes
                0x000000000000165b       0x1b /home/romain/zephyr-sdk-0.16.1/arm-zephyr-eabi/bin/../lib/gcc/../../picolibc/arm-zephyr-eabi/lib/thumb/v7-m/nofp/libc.a(strcmp.S.o)
 .ARM.attributes
                0x0000000000001676       0x31 /home/romain/zephyr-sdk-0.16.1/arm-zephyr-eabi/bin/../lib/gcc/../../picolibc/arm-zephyr-eabi/lib/thumb/v7-m/nofp/libc.a(memcpy.c.o)
 .ARM.attributes
                0x00000000000016a7       0x31 /home/romain/zephyr-sdk-0.16.1/arm-zephyr-eabi/bin/../lib/gcc/../../picolibc/arm-zephyr-eabi/lib/thumb/v7-m/nofp/libc.a(memset.c.o)
 .ARM.attributes
                0x00000000000016d8       0x17 /home/romain/zephyr-sdk-0.16.1/arm-zephyr-eabi/bin/../lib/gcc/../../picolibc/arm-zephyr-eabi/lib/thumb/v7-m/nofp/libc.a(strlen.S.o)
 .ARM.attributes
                0x00000000000016ef       0x31 /home/romain/zephyr-sdk-0.16.1/arm-zephyr-eabi/bin/../lib/gcc/../../picolibc/arm-zephyr-eabi/lib/thumb/v7-m/nofp/libc.a(libc_string_strchr.c.o)
 .ARM.attributes
                0x0000000000001720       0x31 /home/romain/zephyr-sdk-0.16.1/arm-zephyr-eabi/bin/../lib/gcc/../../picolibc/arm-zephyr-eabi/lib/thumb/v7-m/nofp/libc.a(libc_tinystdio_fgetc.c.o)
 .ARM.attributes
                0x0000000000001751       0x31 /home/romain/zephyr-sdk-0.16.1/arm-zephyr-eabi/bin/../lib/gcc/../../picolibc/arm-zephyr-eabi/lib/thumb/v7-m/nofp/libc.a(libc_tinystdio_filestrput.c.o)
 .ARM.attributes
                0x0000000000001782       0x31 /home/romain/zephyr-sdk-0.16.1/arm-zephyr-eabi/bin/../lib/gcc/../../picolibc/arm-zephyr-eabi/lib/thumb/v7-m/nofp/libc.a(libc_tinystdio_ungetc.c.o)
 .ARM.attributes
                0x00000000000017b3       0x31 /home/romain/zephyr-sdk-0.16.1/arm-zephyr-eabi/bin/../lib/gcc/../../picolibc/arm-zephyr-eabi/lib/thumb/v7-m/nofp/libc.a(libm_math_sf_atan.c.o)
 *(SORT_BY_ALIGNMENT(.gnu.attributes))

.last_section   0x000000000800959c        0x4
                0x000000000800959c        0x4 LONG 0xe015e015
                0x00000000000095a0                _flash_used = ((LOADADDR (.last_section) + SIZEOF (.last_section)) - __rom_region_start)
OUTPUT(zephyr/zephyr_pre0.elf elf32-littlearm)
LOAD linker stubs
